ARM GAS  C:\Users\Diogo\AppData\Local\Temp\ccHaX4Zi.s 			page 1


   1              		.cpu cortex-m4
   2              		.eabi_attribute 20, 1
   3              		.eabi_attribute 21, 1
   4              		.eabi_attribute 23, 3
   5              		.eabi_attribute 24, 1
   6              		.eabi_attribute 25, 1
   7              		.eabi_attribute 26, 1
   8              		.eabi_attribute 30, 1
   9              		.eabi_attribute 34, 1
  10              		.eabi_attribute 18, 4
  11              		.file	"hello.c"
  12              		.text
  13              	.Ltext0:
  14              		.cfi_sections	.debug_frame
  15              		.align	1
  16              		.global	__error__
  17              		.syntax unified
  18              		.thumb
  19              		.thumb_func
  20              		.fpu softvfp
  21              		.type	__error__, %function
  22              	__error__:
  23              	.LFB3:
  24              		.file 1 "hello.c"
   1:hello.c       **** //*****************************************************************************
   2:hello.c       **** //
   3:hello.c       **** // hello.c - Simple hello world example.
   4:hello.c       **** //
   5:hello.c       **** // Copyright (c) 2013-2014 Texas Instruments Incorporated.  All rights reserved.
   6:hello.c       **** // Software License Agreement
   7:hello.c       **** //
   8:hello.c       **** // Texas Instruments (TI) is supplying this software for use solely and
   9:hello.c       **** // exclusively on TI's microcontroller products. The software is owned by
  10:hello.c       **** // TI and/or its suppliers, and is protected under applicable copyright
  11:hello.c       **** // laws. You may not combine this software with "viral" open-source
  12:hello.c       **** // software in order to form a larger program.
  13:hello.c       **** //
  14:hello.c       **** // THIS SOFTWARE IS PROVIDED "AS IS" AND WITH ALL FAULTS.
  15:hello.c       **** // NO WARRANTIES, WHETHER EXPRESS, IMPLIED OR STATUTORY, INCLUDING, BUT
  16:hello.c       **** // NOT LIMITED TO, IMPLIED WARRANTIES OF MERCHANTABILITY AND FITNESS FOR
  17:hello.c       **** // A PARTICULAR PURPOSE APPLY TO THIS SOFTWARE. TI SHALL NOT, UNDER ANY
  18:hello.c       **** // CIRCUMSTANCES, BE LIABLE FOR SPECIAL, INCIDENTAL, OR CONSEQUENTIAL
  19:hello.c       **** // DAMAGES, FOR ANY REASON WHATSOEVER.
  20:hello.c       **** //
  21:hello.c       **** // This is part of revision 2.1.0.12573 of the EK-TM4C1294XL Firmware Package.
  22:hello.c       **** //
  23:hello.c       **** //*****************************************************************************
  24:hello.c       **** 
  25:hello.c       **** #include <stdint.h>
  26:hello.c       **** #include <stdbool.h>
  27:hello.c       **** #include "hw_memmap.h"
  28:hello.c       **** #include "hw_types.h"
  29:hello.c       **** #include "driverlib/gpio.h"
  30:hello.c       **** #include "drivers/pinout.h"
  31:hello.c       **** #include "driverlib/pin_map.h"
  32:hello.c       **** #include "driverlib/rom.h"
  33:hello.c       **** #include "driverlib/rom_map.h"
ARM GAS  C:\Users\Diogo\AppData\Local\Temp\ccHaX4Zi.s 			page 2


  34:hello.c       **** #include "driverlib/sysctl.h"
  35:hello.c       **** #include "driverlib/uart.h"
  36:hello.c       **** #include "utils/uartstdio.h"
  37:hello.c       **** 
  38:hello.c       **** #include "tcb/ppos.h"
  39:hello.c       **** #include "contexts.h"
  40:hello.c       **** #include "tcb/ppos_data.h"
  41:hello.c       **** #include "debug.h"
  42:hello.c       **** 
  43:hello.c       **** #include <stdlib.h>
  44:hello.c       **** 
  45:hello.c       **** 
  46:hello.c       **** 
  47:hello.c       **** //*****************************************************************************
  48:hello.c       **** //
  49:hello.c       **** //! \addtogroup example_list
  50:hello.c       **** //! <h1>Hello World (hello)</h1>
  51:hello.c       **** //!
  52:hello.c       **** //! A very simple ``hello world'' example.  It simply displays ``Hello World!''
  53:hello.c       **** //! on the UART and is a starting point for more complicated applications.
  54:hello.c       **** //!
  55:hello.c       **** //! Open a terminal with 115,200 8-N-1 to see the output for this demo.
  56:hello.c       **** //
  57:hello.c       **** //*****************************************************************************
  58:hello.c       **** 
  59:hello.c       **** //*****************************************************************************
  60:hello.c       **** //
  61:hello.c       **** // System clock rate in Hz.
  62:hello.c       **** //
  63:hello.c       **** //*****************************************************************************
  64:hello.c       **** uint32_t g_ui32SysClock;
  65:hello.c       **** 
  66:hello.c       **** //*****************************************************************************
  67:hello.c       **** //
  68:hello.c       **** // The error routine that is called if the driver library encounters an error.
  69:hello.c       **** //
  70:hello.c       **** //*****************************************************************************
  71:hello.c       **** #ifdef DEBUG
  72:hello.c       **** void __error__(char *pcFilename, uint32_t ui32Line)
  73:hello.c       **** {
  25              		.loc 1 73 0
  26              		.cfi_startproc
  27              		@ args = 0, pretend = 0, frame = 0
  28              		@ frame_needed = 0, uses_anonymous_args = 0
  29              	.LVL0:
  30 0000 08B5     		push	{r3, lr}
  31              	.LCFI0:
  32              		.cfi_def_cfa_offset 8
  33              		.cfi_offset 3, -8
  34              		.cfi_offset 14, -4
  74:hello.c       ****     UARTprintf("%s %d\n", pcFilename, ui32Line);
  35              		.loc 1 74 0
  36 0002 0A46     		mov	r2, r1
  37 0004 0146     		mov	r1, r0
  38              	.LVL1:
  39 0006 0248     		ldr	r0, .L2
  40              	.LVL2:
ARM GAS  C:\Users\Diogo\AppData\Local\Temp\ccHaX4Zi.s 			page 3


  41 0008 FFF7FEFF 		bl	UARTprintf
  42              	.LVL3:
  75:hello.c       **** }
  43              		.loc 1 75 0
  44 000c 08BD     		pop	{r3, pc}
  45              	.L3:
  46 000e 00BF     		.align	2
  47              	.L2:
  48 0010 00000000 		.word	.LC0
  49              		.cfi_endproc
  50              	.LFE3:
  51              		.size	__error__, .-__error__
  52              		.align	1
  53              		.global	ConfigureUART
  54              		.syntax unified
  55              		.thumb
  56              		.thumb_func
  57              		.fpu softvfp
  58              		.type	ConfigureUART, %function
  59              	ConfigureUART:
  60              	.LFB4:
  76:hello.c       **** #endif
  77:hello.c       **** 
  78:hello.c       **** //*****************************************************************************
  79:hello.c       **** //
  80:hello.c       **** // Configure the UART and its pins.  This must be called before UARTprintf().
  81:hello.c       **** //
  82:hello.c       **** //*****************************************************************************
  83:hello.c       **** void ConfigureUART(void)
  84:hello.c       **** {
  61              		.loc 1 84 0
  62              		.cfi_startproc
  63              		@ args = 0, pretend = 0, frame = 0
  64              		@ frame_needed = 0, uses_anonymous_args = 0
  65 0014 10B5     		push	{r4, lr}
  66              	.LCFI1:
  67              		.cfi_def_cfa_offset 8
  68              		.cfi_offset 4, -8
  69              		.cfi_offset 14, -4
  85:hello.c       ****     //
  86:hello.c       ****     // Enable the GPIO Peripheral used by the UART.
  87:hello.c       ****     //
  88:hello.c       ****     ROM_SysCtlPeripheralEnable(SYSCTL_PERIPH_GPIOA);
  70              		.loc 1 88 0
  71 0016 134C     		ldr	r4, .L5
  72 0018 2368     		ldr	r3, [r4]
  73 001a 9B69     		ldr	r3, [r3, #24]
  74 001c 1248     		ldr	r0, .L5+4
  75 001e 9847     		blx	r3
  76              	.LVL4:
  89:hello.c       **** 
  90:hello.c       ****     //
  91:hello.c       ****     // Enable UART0
  92:hello.c       ****     //
  93:hello.c       ****     ROM_SysCtlPeripheralEnable(SYSCTL_PERIPH_UART0);
  77              		.loc 1 93 0
  78 0020 2368     		ldr	r3, [r4]
ARM GAS  C:\Users\Diogo\AppData\Local\Temp\ccHaX4Zi.s 			page 4


  79 0022 9B69     		ldr	r3, [r3, #24]
  80 0024 1148     		ldr	r0, .L5+8
  81 0026 9847     		blx	r3
  82              	.LVL5:
  94:hello.c       **** 
  95:hello.c       ****     //
  96:hello.c       ****     // Configure GPIO Pins for UART mode.
  97:hello.c       ****     //
  98:hello.c       ****     ROM_GPIOPinConfigure(GPIO_PA0_U0RX);
  83              		.loc 1 98 0
  84 0028 243C     		subs	r4, r4, #36
  85 002a 2368     		ldr	r3, [r4]
  86 002c 9B6E     		ldr	r3, [r3, #104]
  87 002e 0120     		movs	r0, #1
  88 0030 9847     		blx	r3
  89              	.LVL6:
  99:hello.c       ****     ROM_GPIOPinConfigure(GPIO_PA1_U0TX);
  90              		.loc 1 99 0
  91 0032 2368     		ldr	r3, [r4]
  92 0034 9B6E     		ldr	r3, [r3, #104]
  93 0036 40F20140 		movw	r0, #1025
  94 003a 9847     		blx	r3
  95              	.LVL7:
 100:hello.c       ****     ROM_GPIOPinTypeUART(GPIO_PORTA_BASE, GPIO_PIN_0 | GPIO_PIN_1);
  96              		.loc 1 100 0
  97 003c 2368     		ldr	r3, [r4]
  98 003e 5B6D     		ldr	r3, [r3, #84]
  99 0040 0321     		movs	r1, #3
 100 0042 4FF04020 		mov	r0, #1073758208
 101 0046 9847     		blx	r3
 102              	.LVL8:
 101:hello.c       ****     ROM_GPIOPinTypeUART(GPIO_PORTA_BASE, GPIO_PIN_0 | GPIO_PIN_2);
 103              		.loc 1 101 0
 104 0048 2368     		ldr	r3, [r4]
 105 004a 5B6D     		ldr	r3, [r3, #84]
 106 004c 0521     		movs	r1, #5
 107 004e 4FF04020 		mov	r0, #1073758208
 108 0052 9847     		blx	r3
 109              	.LVL9:
 102:hello.c       **** 
 103:hello.c       ****     //
 104:hello.c       ****     // Initialize the UART for console I/O.
 105:hello.c       ****     //
 106:hello.c       ****     UARTStdioConfig(0, 115200, g_ui32SysClock);
 110              		.loc 1 106 0
 111 0054 064B     		ldr	r3, .L5+12
 112 0056 1A68     		ldr	r2, [r3]
 113 0058 4FF4E131 		mov	r1, #115200
 114 005c 0020     		movs	r0, #0
 115 005e FFF7FEFF 		bl	UARTStdioConfig
 116              	.LVL10:
 107:hello.c       **** }
 117              		.loc 1 107 0
 118 0062 10BD     		pop	{r4, pc}
 119              	.L6:
 120              		.align	2
 121              	.L5:
ARM GAS  C:\Users\Diogo\AppData\Local\Temp\ccHaX4Zi.s 			page 5


 122 0064 44000001 		.word	16777284
 123 0068 000800F0 		.word	-268433408
 124 006c 001800F0 		.word	-268429312
 125 0070 00000000 		.word	g_ui32SysClock
 126              		.cfi_endproc
 127              	.LFE4:
 128              		.size	ConfigureUART, .-ConfigureUART
 129              		.align	1
 130              		.global	main
 131              		.syntax unified
 132              		.thumb
 133              		.thumb_func
 134              		.fpu softvfp
 135              		.type	main, %function
 136              	main:
 137              	.LFB5:
 108:hello.c       **** 
 109:hello.c       **** //*****************************************************************************
 110:hello.c       **** //
 111:hello.c       **** // Print "Hello World!" to the UART on the Intelligent UART Module.
 112:hello.c       **** //
 113:hello.c       **** //*****************************************************************************
 114:hello.c       **** //-D DEBUG -D gcc
 115:hello.c       **** int main(void)
 116:hello.c       **** {
 138              		.loc 1 116 0
 139              		.cfi_startproc
 140              		@ args = 0, pretend = 0, frame = 0
 141              		@ frame_needed = 0, uses_anonymous_args = 0
 142 0074 2DE9F041 		push	{r4, r5, r6, r7, r8, lr}
 143              	.LCFI2:
 144              		.cfi_def_cfa_offset 24
 145              		.cfi_offset 4, -24
 146              		.cfi_offset 5, -20
 147              		.cfi_offset 6, -16
 148              		.cfi_offset 7, -12
 149              		.cfi_offset 8, -8
 150              		.cfi_offset 14, -4
 151              	.LVL11:
 117:hello.c       ****     char teste[10]; //
 118:hello.c       ****     uint32_t cont;
 119:hello.c       ****     int teste001 = 0;
 120:hello.c       ****     task_t *maintask, *task_ping, *task_pong;
 121:hello.c       ****     cont = 0;
 122:hello.c       ****     // Run from the PLL at 120 MHz.
 123:hello.c       ****     //
 124:hello.c       ****     g_ui32SysClock = MAP_SysCtlClockFreqSet((SYSCTL_XTAL_25MHZ |
 152              		.loc 1 124 0
 153 0078 2C4B     		ldr	r3, .L9
 154 007a 1B68     		ldr	r3, [r3]
 155 007c D3F8C030 		ldr	r3, [r3, #192]
 156 0080 2B49     		ldr	r1, .L9+4
 157 0082 2C48     		ldr	r0, .L9+8
 158 0084 9847     		blx	r3
 159              	.LVL12:
 160 0086 2C4B     		ldr	r3, .L9+12
 161 0088 1860     		str	r0, [r3]
ARM GAS  C:\Users\Diogo\AppData\Local\Temp\ccHaX4Zi.s 			page 6


 125:hello.c       ****                                              SYSCTL_OSC_MAIN | SYSCTL_USE_PLL |
 126:hello.c       ****                                              SYSCTL_CFG_VCO_480),
 127:hello.c       ****                                             120000000);
 128:hello.c       **** 
 129:hello.c       ****     //
 130:hello.c       ****     // Configure the device pins.
 131:hello.c       ****     //
 132:hello.c       ****     PinoutSet(false, false);
 162              		.loc 1 132 0
 163 008a 0021     		movs	r1, #0
 164 008c 0846     		mov	r0, r1
 165 008e FFF7FEFF 		bl	PinoutSet
 166              	.LVL13:
 133:hello.c       **** 
 134:hello.c       ****     //
 135:hello.c       ****     // Enable the GPIO pins for the LED D1 (PN1).
 136:hello.c       ****     //
 137:hello.c       ****     ROM_GPIOPinTypeGPIOOutput(GPIO_PORTN_BASE, GPIO_PIN_1);
 167              		.loc 1 137 0
 168 0092 2A4C     		ldr	r4, .L9+16
 169 0094 2A4D     		ldr	r5, .L9+20
 170 0096 2B68     		ldr	r3, [r5]
 171 0098 DB6B     		ldr	r3, [r3, #60]
 172 009a 0221     		movs	r1, #2
 173 009c 2046     		mov	r0, r4
 174 009e 9847     		blx	r3
 175              	.LVL14:
 138:hello.c       ****     ROM_GPIOPinTypeGPIOOutput(GPIO_PORTN_BASE, GPIO_PIN_2);
 176              		.loc 1 138 0
 177 00a0 2B68     		ldr	r3, [r5]
 178 00a2 DB6B     		ldr	r3, [r3, #60]
 179 00a4 0421     		movs	r1, #4
 180 00a6 2046     		mov	r0, r4
 181 00a8 9847     		blx	r3
 182              	.LVL15:
 139:hello.c       **** 
 140:hello.c       ****     //
 141:hello.c       ****     // Initialize the UART.
 142:hello.c       ****     //
 143:hello.c       ****     ConfigureUART();
 183              		.loc 1 143 0
 184 00aa FFF7FEFF 		bl	ConfigureUART
 185              	.LVL16:
 144:hello.c       **** 
 145:hello.c       ****     //
 146:hello.c       ****     // Hello!
 147:hello.c       ****     //
 148:hello.c       ****     UARTprintf("Hello, world  TIVA CCCC !\n");
 186              		.loc 1 148 0
 187 00ae 2548     		ldr	r0, .L9+24
 188 00b0 FFF7FEFF 		bl	UARTprintf
 189              	.LVL17:
 149:hello.c       ****     //UARTgets(char *pcBuf, uint32_t ui32Len)teste = getchar();//
 150:hello.c       ****     //teste1(); Teste de contexts
 151:hello.c       ****     ppos_init();
 190              		.loc 1 151 0
 191 00b4 FFF7FEFF 		bl	ppos_init
ARM GAS  C:\Users\Diogo\AppData\Local\Temp\ccHaX4Zi.s 			page 7


 192              	.LVL18:
 152:hello.c       ****     task_ping = (task_t *) malloc(sizeof(task_t *));
 193              		.loc 1 152 0
 194 00b8 0420     		movs	r0, #4
 195 00ba FFF7FEFF 		bl	malloc
 196              	.LVL19:
 197 00be 0646     		mov	r6, r0
 198              	.LVL20:
 153:hello.c       ****     task_pong = (task_t *) malloc(sizeof(task_t *));
 199              		.loc 1 153 0
 200 00c0 0420     		movs	r0, #4
 201              	.LVL21:
 202 00c2 FFF7FEFF 		bl	malloc
 203              	.LVL22:
 204 00c6 0546     		mov	r5, r0
 205              	.LVL23:
 154:hello.c       ****     teste001 = task_create(task_ping, (*BodyPing), "    Ping");
 206              		.loc 1 154 0
 207 00c8 1F4C     		ldr	r4, .L9+28
 208 00ca 2246     		mov	r2, r4
 209 00cc 1F49     		ldr	r1, .L9+32
 210 00ce 3046     		mov	r0, r6
 211              	.LVL24:
 212 00d0 FFF7FEFF 		bl	task_create
 213              	.LVL25:
 155:hello.c       ****     teste001 = task_create(task_pong, (*BodyPong), "    Ping");
 214              		.loc 1 155 0
 215 00d4 2246     		mov	r2, r4
 216 00d6 1E49     		ldr	r1, .L9+36
 217 00d8 2846     		mov	r0, r5
 218 00da FFF7FEFF 		bl	task_create
 219              	.LVL26:
 156:hello.c       ****     startSwitcher();
 220              		.loc 1 156 0
 221 00de FFF7FEFF 		bl	startSwitcher
 222              	.LVL27:
 157:hello.c       ****     while (1)
 158:hello.c       ****     {
 159:hello.c       ****         //
 160:hello.c       ****         // Turn on D1.
 161:hello.c       ****         //
 162:hello.c       ****         LEDWrite(CLP_D1, 1);
 223              		.loc 1 162 0
 224 00e2 0124     		movs	r4, #1
 163:hello.c       ****         LEDWrite(CLP_D2, 0);
 225              		.loc 1 163 0
 226 00e4 0027     		movs	r7, #0
 227 00e6 0226     		movs	r6, #2
 228              	.LVL28:
 229              	.L8:
 162:hello.c       ****         LEDWrite(CLP_D2, 0);
 230              		.loc 1 162 0 discriminator 1
 231 00e8 2146     		mov	r1, r4
 232 00ea 2046     		mov	r0, r4
 233 00ec FFF7FEFF 		bl	LEDWrite
 234              	.LVL29:
 235              		.loc 1 163 0 discriminator 1
ARM GAS  C:\Users\Diogo\AppData\Local\Temp\ccHaX4Zi.s 			page 8


 236 00f0 3946     		mov	r1, r7
 237 00f2 3046     		mov	r0, r6
 238 00f4 FFF7FEFF 		bl	LEDWrite
 239              	.LVL30:
 164:hello.c       **** 
 165:hello.c       ****         //
 166:hello.c       ****         // Delay for a bit.
 167:hello.c       ****         //
 168:hello.c       ****         SysCtlDelay(g_ui32SysClock / 10 / 3);
 240              		.loc 1 168 0 discriminator 1
 241 00f8 DFF83C80 		ldr	r8, .L9+12
 242 00fc D8F80000 		ldr	r0, [r8]
 243 0100 144D     		ldr	r5, .L9+40
 244 0102 A5FB0030 		umull	r3, r0, r5, r0
 245 0106 0009     		lsrs	r0, r0, #4
 246 0108 FFF7FEFF 		bl	SysCtlDelay
 247              	.LVL31:
 169:hello.c       **** 
 170:hello.c       ****         //
 171:hello.c       ****         // Turn off D1.
 172:hello.c       ****         //
 173:hello.c       ****         LEDWrite(CLP_D1, 0);
 248              		.loc 1 173 0 discriminator 1
 249 010c 3946     		mov	r1, r7
 250 010e 2046     		mov	r0, r4
 251 0110 FFF7FEFF 		bl	LEDWrite
 252              	.LVL32:
 174:hello.c       ****         LEDWrite(CLP_D2, 1);
 253              		.loc 1 174 0 discriminator 1
 254 0114 2146     		mov	r1, r4
 255 0116 3046     		mov	r0, r6
 256 0118 FFF7FEFF 		bl	LEDWrite
 257              	.LVL33:
 175:hello.c       ****         //
 176:hello.c       ****         // Delay for a bit.
 177:hello.c       ****         //
 178:hello.c       ****         SysCtlDelay(g_ui32SysClock / 10 / 3);
 258              		.loc 1 178 0 discriminator 1
 259 011c D8F80000 		ldr	r0, [r8]
 260 0120 A5FB0030 		umull	r3, r0, r5, r0
 261 0124 0009     		lsrs	r0, r0, #4
 262 0126 FFF7FEFF 		bl	SysCtlDelay
 263              	.LVL34:
 264 012a DDE7     		b	.L8
 265              	.L10:
 266              		.align	2
 267              	.L9:
 268 012c 44000001 		.word	16777284
 269 0130 000E2707 		.word	120000000
 270 0134 800600F1 		.word	-251656576
 271 0138 00000000 		.word	g_ui32SysClock
 272 013c 00400640 		.word	1074151424
 273 0140 20000001 		.word	16777248
 274 0144 08000000 		.word	.LC1
 275 0148 24000000 		.word	.LC2
 276 014c 00000000 		.word	BodyPing
 277 0150 00000000 		.word	BodyPong
ARM GAS  C:\Users\Diogo\AppData\Local\Temp\ccHaX4Zi.s 			page 9


 278 0154 89888888 		.word	-2004318071
 279              		.cfi_endproc
 280              	.LFE5:
 281              		.size	main, .-main
 282              		.comm	g_ui32SysClock,4,4
 283              		.comm	ContextMain,100,4
 284              		.comm	ContextPong,100,4
 285              		.comm	ContextPing,100,4
 286              		.section	.rodata.str1.4,"aMS",%progbits,1
 287              		.align	2
 288              	.LC0:
 289 0000 25732025 		.ascii	"%s %d\012\000"
 289      640A00
 290 0007 00       		.space	1
 291              	.LC1:
 292 0008 48656C6C 		.ascii	"Hello, world  TIVA CCCC !\012\000"
 292      6F2C2077 
 292      6F726C64 
 292      20205449 
 292      56412043 
 293 0023 00       		.space	1
 294              	.LC2:
 295 0024 20202020 		.ascii	"    Ping\000"
 295      50696E67 
 295      00
 296              		.text
 297              	.Letext0:
 298              		.file 2 "c:\\program files (x86)\\gnu tools arm embedded\\7 2018-q2-update\\arm-none-eabi\\include
 299              		.file 3 "c:\\program files (x86)\\gnu tools arm embedded\\7 2018-q2-update\\arm-none-eabi\\include
 300              		.file 4 "../so-tiva-pratica/context/ucontext.h"
 301              		.file 5 "tcb/ppos_data.h"
 302              		.file 6 "c:\\program files (x86)\\gnu tools arm embedded\\7 2018-q2-update\\arm-none-eabi\\include
 303              		.file 7 "c:\\program files (x86)\\gnu tools arm embedded\\7 2018-q2-update\\arm-none-eabi\\include
 304              		.file 8 "c:\\program files (x86)\\gnu tools arm embedded\\7 2018-q2-update\\lib\\gcc\\arm-none-eab
 305              		.file 9 "c:\\program files (x86)\\gnu tools arm embedded\\7 2018-q2-update\\arm-none-eabi\\include
 306              		.file 10 "c:\\program files (x86)\\gnu tools arm embedded\\7 2018-q2-update\\arm-none-eabi\\includ
 307              		.file 11 "contexts.h"
 308              		.file 12 "drivers/pinout.h"
 309              		.file 13 "./inc/utils/uartstdio.h"
 310              		.file 14 "tcb/ppos.h"
 311              		.file 15 "./inc/driverlib/sysctl.h"
 312              		.section	.debug_info,"",%progbits
 313              	.Ldebug_info0:
 314 0000 7D0F0000 		.4byte	0xf7d
 315 0004 0200     		.2byte	0x2
 316 0006 00000000 		.4byte	.Ldebug_abbrev0
 317 000a 04       		.byte	0x4
 318 000b 01       		.uleb128 0x1
 319 000c 7D030000 		.4byte	.LASF182
 320 0010 0C       		.byte	0xc
 321 0011 68020000 		.4byte	.LASF183
 322 0015 2C040000 		.4byte	.LASF184
 323 0019 00000000 		.4byte	.Ltext0
 324 001d 58010000 		.4byte	.Letext0
 325 0021 00000000 		.4byte	.Ldebug_line0
 326 0025 02       		.uleb128 0x2
 327 0026 01       		.byte	0x1
ARM GAS  C:\Users\Diogo\AppData\Local\Temp\ccHaX4Zi.s 			page 10


 328 0027 06       		.byte	0x6
 329 0028 FE000000 		.4byte	.LASF0
 330 002c 02       		.uleb128 0x2
 331 002d 01       		.byte	0x1
 332 002e 08       		.byte	0x8
 333 002f E1040000 		.4byte	.LASF1
 334 0033 02       		.uleb128 0x2
 335 0034 02       		.byte	0x2
 336 0035 05       		.byte	0x5
 337 0036 FD040000 		.4byte	.LASF2
 338 003a 02       		.uleb128 0x2
 339 003b 02       		.byte	0x2
 340 003c 07       		.byte	0x7
 341 003d ED020000 		.4byte	.LASF3
 342 0041 02       		.uleb128 0x2
 343 0042 04       		.byte	0x4
 344 0043 05       		.byte	0x5
 345 0044 52010000 		.4byte	.LASF4
 346 0048 03       		.uleb128 0x3
 347 0049 0D020000 		.4byte	.LASF9
 348 004d 02       		.byte	0x2
 349 004e 4F       		.byte	0x4f
 350 004f 53000000 		.4byte	0x53
 351 0053 02       		.uleb128 0x2
 352 0054 04       		.byte	0x4
 353 0055 07       		.byte	0x7
 354 0056 BF020000 		.4byte	.LASF5
 355 005a 02       		.uleb128 0x2
 356 005b 08       		.byte	0x8
 357 005c 05       		.byte	0x5
 358 005d F0000000 		.4byte	.LASF6
 359 0061 02       		.uleb128 0x2
 360 0062 08       		.byte	0x8
 361 0063 07       		.byte	0x7
 362 0064 6A000000 		.4byte	.LASF7
 363 0068 04       		.uleb128 0x4
 364 0069 04       		.byte	0x4
 365 006a 05       		.byte	0x5
 366 006b 696E7400 		.ascii	"int\000"
 367 006f 02       		.uleb128 0x2
 368 0070 04       		.byte	0x4
 369 0071 07       		.byte	0x7
 370 0072 87020000 		.4byte	.LASF8
 371 0076 03       		.uleb128 0x3
 372 0077 C4050000 		.4byte	.LASF10
 373 007b 03       		.byte	0x3
 374 007c 30       		.byte	0x30
 375 007d 48000000 		.4byte	0x48
 376 0081 05       		.uleb128 0x5
 377 0082 04       		.byte	0x4
 378 0083 06       		.uleb128 0x6
 379 0084 B8040000 		.4byte	.LASF15
 380 0088 0C       		.byte	0xc
 381 0089 04       		.byte	0x4
 382 008a 06       		.byte	0x6
 383 008b BA000000 		.4byte	0xba
 384 008f 07       		.uleb128 0x7
ARM GAS  C:\Users\Diogo\AppData\Local\Temp\ccHaX4Zi.s 			page 11


 385 0090 6E040000 		.4byte	.LASF11
 386 0094 04       		.byte	0x4
 387 0095 08       		.byte	0x8
 388 0096 BA000000 		.4byte	0xba
 389 009a 02       		.byte	0x2
 390 009b 23       		.byte	0x23
 391 009c 00       		.uleb128 0
 392 009d 07       		.uleb128 0x7
 393 009e A3020000 		.4byte	.LASF12
 394 00a2 04       		.byte	0x4
 395 00a3 0A       		.byte	0xa
 396 00a4 41000000 		.4byte	0x41
 397 00a8 02       		.byte	0x2
 398 00a9 23       		.byte	0x23
 399 00aa 04       		.uleb128 0x4
 400 00ab 07       		.uleb128 0x7
 401 00ac D8040000 		.4byte	.LASF13
 402 00b0 04       		.byte	0x4
 403 00b1 0B       		.byte	0xb
 404 00b2 68000000 		.4byte	0x68
 405 00b6 02       		.byte	0x2
 406 00b7 23       		.byte	0x23
 407 00b8 08       		.uleb128 0x8
 408 00b9 00       		.byte	0
 409 00ba 08       		.uleb128 0x8
 410 00bb 04       		.byte	0x4
 411 00bc C0000000 		.4byte	0xc0
 412 00c0 02       		.uleb128 0x2
 413 00c1 01       		.byte	0x1
 414 00c2 08       		.byte	0x8
 415 00c3 FC050000 		.4byte	.LASF14
 416 00c7 09       		.uleb128 0x9
 417 00c8 C0000000 		.4byte	0xc0
 418 00cc 03       		.uleb128 0x3
 419 00cd B8040000 		.4byte	.LASF15
 420 00d1 04       		.byte	0x4
 421 00d2 0C       		.byte	0xc
 422 00d3 83000000 		.4byte	0x83
 423 00d7 06       		.uleb128 0x6
 424 00d8 8A000000 		.4byte	.LASF16
 425 00dc 4C       		.byte	0x4c
 426 00dd 04       		.byte	0x4
 427 00de 0E       		.byte	0xe
 428 00df EE010000 		.4byte	0x1ee
 429 00e3 07       		.uleb128 0x7
 430 00e4 81020000 		.4byte	.LASF17
 431 00e8 04       		.byte	0x4
 432 00e9 10       		.byte	0x10
 433 00ea 68000000 		.4byte	0x68
 434 00ee 02       		.byte	0x2
 435 00ef 23       		.byte	0x23
 436 00f0 00       		.uleb128 0
 437 00f1 07       		.uleb128 0x7
 438 00f2 DB050000 		.4byte	.LASF18
 439 00f6 04       		.byte	0x4
 440 00f7 11       		.byte	0x11
 441 00f8 68000000 		.4byte	0x68
ARM GAS  C:\Users\Diogo\AppData\Local\Temp\ccHaX4Zi.s 			page 12


 442 00fc 02       		.byte	0x2
 443 00fd 23       		.byte	0x23
 444 00fe 04       		.uleb128 0x4
 445 00ff 07       		.uleb128 0x7
 446 0100 B0040000 		.4byte	.LASF19
 447 0104 04       		.byte	0x4
 448 0105 12       		.byte	0x12
 449 0106 68000000 		.4byte	0x68
 450 010a 02       		.byte	0x2
 451 010b 23       		.byte	0x23
 452 010c 08       		.uleb128 0x8
 453 010d 07       		.uleb128 0x7
 454 010e 62040000 		.4byte	.LASF20
 455 0112 04       		.byte	0x4
 456 0113 13       		.byte	0x13
 457 0114 68000000 		.4byte	0x68
 458 0118 02       		.byte	0x2
 459 0119 23       		.byte	0x23
 460 011a 0C       		.uleb128 0xc
 461 011b 07       		.uleb128 0x7
 462 011c 68040000 		.4byte	.LASF21
 463 0120 04       		.byte	0x4
 464 0121 14       		.byte	0x14
 465 0122 68000000 		.4byte	0x68
 466 0126 02       		.byte	0x2
 467 0127 23       		.byte	0x23
 468 0128 10       		.uleb128 0x10
 469 0129 07       		.uleb128 0x7
 470 012a 14070000 		.4byte	.LASF22
 471 012e 04       		.byte	0x4
 472 012f 15       		.byte	0x15
 473 0130 68000000 		.4byte	0x68
 474 0134 02       		.byte	0x2
 475 0135 23       		.byte	0x23
 476 0136 14       		.uleb128 0x14
 477 0137 07       		.uleb128 0x7
 478 0138 74040000 		.4byte	.LASF23
 479 013c 04       		.byte	0x4
 480 013d 16       		.byte	0x16
 481 013e 68000000 		.4byte	0x68
 482 0142 02       		.byte	0x2
 483 0143 23       		.byte	0x23
 484 0144 18       		.uleb128 0x18
 485 0145 07       		.uleb128 0x7
 486 0146 7A040000 		.4byte	.LASF24
 487 014a 04       		.byte	0x4
 488 014b 17       		.byte	0x17
 489 014c 68000000 		.4byte	0x68
 490 0150 02       		.byte	0x2
 491 0151 23       		.byte	0x23
 492 0152 1C       		.uleb128 0x1c
 493 0153 07       		.uleb128 0x7
 494 0154 80040000 		.4byte	.LASF25
 495 0158 04       		.byte	0x4
 496 0159 18       		.byte	0x18
 497 015a 68000000 		.4byte	0x68
 498 015e 02       		.byte	0x2
ARM GAS  C:\Users\Diogo\AppData\Local\Temp\ccHaX4Zi.s 			page 13


 499 015f 23       		.byte	0x23
 500 0160 20       		.uleb128 0x20
 501 0161 07       		.uleb128 0x7
 502 0162 86040000 		.4byte	.LASF26
 503 0166 04       		.byte	0x4
 504 0167 19       		.byte	0x19
 505 0168 68000000 		.4byte	0x68
 506 016c 02       		.byte	0x2
 507 016d 23       		.byte	0x23
 508 016e 24       		.uleb128 0x24
 509 016f 07       		.uleb128 0x7
 510 0170 8C040000 		.4byte	.LASF27
 511 0174 04       		.byte	0x4
 512 0175 1A       		.byte	0x1a
 513 0176 68000000 		.4byte	0x68
 514 017a 02       		.byte	0x2
 515 017b 23       		.byte	0x23
 516 017c 28       		.uleb128 0x28
 517 017d 07       		.uleb128 0x7
 518 017e 92040000 		.4byte	.LASF28
 519 0182 04       		.byte	0x4
 520 0183 1B       		.byte	0x1b
 521 0184 68000000 		.4byte	0x68
 522 0188 02       		.byte	0x2
 523 0189 23       		.byte	0x23
 524 018a 2C       		.uleb128 0x2c
 525 018b 07       		.uleb128 0x7
 526 018c 98040000 		.4byte	.LASF29
 527 0190 04       		.byte	0x4
 528 0191 1C       		.byte	0x1c
 529 0192 68000000 		.4byte	0x68
 530 0196 02       		.byte	0x2
 531 0197 23       		.byte	0x23
 532 0198 30       		.uleb128 0x30
 533 0199 07       		.uleb128 0x7
 534 019a AF050000 		.4byte	.LASF30
 535 019e 04       		.byte	0x4
 536 019f 1D       		.byte	0x1d
 537 01a0 68000000 		.4byte	0x68
 538 01a4 02       		.byte	0x2
 539 01a5 23       		.byte	0x23
 540 01a6 34       		.uleb128 0x34
 541 01a7 07       		.uleb128 0x7
 542 01a8 B6050000 		.4byte	.LASF31
 543 01ac 04       		.byte	0x4
 544 01ad 1E       		.byte	0x1e
 545 01ae 68000000 		.4byte	0x68
 546 01b2 02       		.byte	0x2
 547 01b3 23       		.byte	0x23
 548 01b4 38       		.uleb128 0x38
 549 01b5 07       		.uleb128 0x7
 550 01b6 BD050000 		.4byte	.LASF32
 551 01ba 04       		.byte	0x4
 552 01bb 1F       		.byte	0x1f
 553 01bc 68000000 		.4byte	0x68
 554 01c0 02       		.byte	0x2
 555 01c1 23       		.byte	0x23
ARM GAS  C:\Users\Diogo\AppData\Local\Temp\ccHaX4Zi.s 			page 14


 556 01c2 3C       		.uleb128 0x3c
 557 01c3 07       		.uleb128 0x7
 558 01c4 1C040000 		.4byte	.LASF33
 559 01c8 04       		.byte	0x4
 560 01c9 20       		.byte	0x20
 561 01ca 68000000 		.4byte	0x68
 562 01ce 02       		.byte	0x2
 563 01cf 23       		.byte	0x23
 564 01d0 40       		.uleb128 0x40
 565 01d1 07       		.uleb128 0x7
 566 01d2 CD050000 		.4byte	.LASF34
 567 01d6 04       		.byte	0x4
 568 01d7 21       		.byte	0x21
 569 01d8 68000000 		.4byte	0x68
 570 01dc 02       		.byte	0x2
 571 01dd 23       		.byte	0x23
 572 01de 44       		.uleb128 0x44
 573 01df 07       		.uleb128 0x7
 574 01e0 D4050000 		.4byte	.LASF35
 575 01e4 04       		.byte	0x4
 576 01e5 22       		.byte	0x22
 577 01e6 68000000 		.4byte	0x68
 578 01ea 02       		.byte	0x2
 579 01eb 23       		.byte	0x23
 580 01ec 48       		.uleb128 0x48
 581 01ed 00       		.byte	0
 582 01ee 03       		.uleb128 0x3
 583 01ef 8A000000 		.4byte	.LASF16
 584 01f3 04       		.byte	0x4
 585 01f4 23       		.byte	0x23
 586 01f5 D7000000 		.4byte	0xd7
 587 01f9 06       		.uleb128 0x6
 588 01fa C6000000 		.4byte	.LASF36
 589 01fe 64       		.byte	0x64
 590 01ff 04       		.byte	0x4
 591 0200 25       		.byte	0x25
 592 0201 4C020000 		.4byte	0x24c
 593 0205 07       		.uleb128 0x7
 594 0206 A0000000 		.4byte	.LASF37
 595 020a 04       		.byte	0x4
 596 020b 27       		.byte	0x27
 597 020c 4C020000 		.4byte	0x24c
 598 0210 02       		.byte	0x2
 599 0211 23       		.byte	0x23
 600 0212 00       		.uleb128 0
 601 0213 07       		.uleb128 0x7
 602 0214 A4010000 		.4byte	.LASF38
 603 0218 04       		.byte	0x4
 604 0219 29       		.byte	0x29
 605 021a CC000000 		.4byte	0xcc
 606 021e 02       		.byte	0x2
 607 021f 23       		.byte	0x23
 608 0220 04       		.uleb128 0x4
 609 0221 07       		.uleb128 0x7
 610 0222 38050000 		.4byte	.LASF39
 611 0226 04       		.byte	0x4
 612 0227 2A       		.byte	0x2a
ARM GAS  C:\Users\Diogo\AppData\Local\Temp\ccHaX4Zi.s 			page 15


 613 0228 EE010000 		.4byte	0x1ee
 614 022c 02       		.byte	0x2
 615 022d 23       		.byte	0x23
 616 022e 10       		.uleb128 0x10
 617 022f 07       		.uleb128 0x7
 618 0230 01060000 		.4byte	.LASF40
 619 0234 04       		.byte	0x4
 620 0235 2B       		.byte	0x2b
 621 0236 68000000 		.4byte	0x68
 622 023a 02       		.byte	0x2
 623 023b 23       		.byte	0x23
 624 023c 5C       		.uleb128 0x5c
 625 023d 07       		.uleb128 0x7
 626 023e 75020000 		.4byte	.LASF41
 627 0242 04       		.byte	0x4
 628 0243 2C       		.byte	0x2c
 629 0244 68000000 		.4byte	0x68
 630 0248 02       		.byte	0x2
 631 0249 23       		.byte	0x23
 632 024a 60       		.uleb128 0x60
 633 024b 00       		.byte	0
 634 024c 08       		.uleb128 0x8
 635 024d 04       		.byte	0x4
 636 024e F9010000 		.4byte	0x1f9
 637 0252 03       		.uleb128 0x3
 638 0253 C6000000 		.4byte	.LASF36
 639 0257 04       		.byte	0x4
 640 0258 2D       		.byte	0x2d
 641 0259 F9010000 		.4byte	0x1f9
 642 025d 06       		.uleb128 0x6
 643 025e 1E060000 		.4byte	.LASF42
 644 0262 74       		.byte	0x74
 645 0263 05       		.byte	0x5
 646 0264 0E       		.byte	0xe
 647 0265 AF020000 		.4byte	0x2af
 648 0269 07       		.uleb128 0x7
 649 026a 35000000 		.4byte	.LASF43
 650 026e 05       		.byte	0x5
 651 026f 10       		.byte	0x10
 652 0270 AF020000 		.4byte	0x2af
 653 0274 02       		.byte	0x2
 654 0275 23       		.byte	0x23
 655 0276 00       		.uleb128 0
 656 0277 07       		.uleb128 0x7
 657 0278 C1000000 		.4byte	.LASF44
 658 027c 05       		.byte	0x5
 659 027d 10       		.byte	0x10
 660 027e AF020000 		.4byte	0x2af
 661 0282 02       		.byte	0x2
 662 0283 23       		.byte	0x23
 663 0284 04       		.uleb128 0x4
 664 0285 0A       		.uleb128 0xa
 665 0286 696400   		.ascii	"id\000"
 666 0289 05       		.byte	0x5
 667 028a 11       		.byte	0x11
 668 028b 68000000 		.4byte	0x68
 669 028f 02       		.byte	0x2
ARM GAS  C:\Users\Diogo\AppData\Local\Temp\ccHaX4Zi.s 			page 16


 670 0290 23       		.byte	0x23
 671 0291 08       		.uleb128 0x8
 672 0292 07       		.uleb128 0x7
 673 0293 3C060000 		.4byte	.LASF45
 674 0297 05       		.byte	0x5
 675 0298 12       		.byte	0x12
 676 0299 52020000 		.4byte	0x252
 677 029d 02       		.byte	0x2
 678 029e 23       		.byte	0x23
 679 029f 0C       		.uleb128 0xc
 680 02a0 07       		.uleb128 0x7
 681 02a1 34070000 		.4byte	.LASF46
 682 02a5 05       		.byte	0x5
 683 02a6 13       		.byte	0x13
 684 02a7 81000000 		.4byte	0x81
 685 02ab 02       		.byte	0x2
 686 02ac 23       		.byte	0x23
 687 02ad 70       		.uleb128 0x70
 688 02ae 00       		.byte	0
 689 02af 08       		.uleb128 0x8
 690 02b0 04       		.byte	0x4
 691 02b1 5D020000 		.4byte	0x25d
 692 02b5 03       		.uleb128 0x3
 693 02b6 1E060000 		.4byte	.LASF42
 694 02ba 05       		.byte	0x5
 695 02bb 15       		.byte	0x15
 696 02bc 5D020000 		.4byte	0x25d
 697 02c0 02       		.uleb128 0x2
 698 02c1 08       		.byte	0x8
 699 02c2 04       		.byte	0x4
 700 02c3 FC010000 		.4byte	.LASF47
 701 02c7 03       		.uleb128 0x3
 702 02c8 30030000 		.4byte	.LASF48
 703 02cc 06       		.byte	0x6
 704 02cd 22       		.byte	0x22
 705 02ce D2020000 		.4byte	0x2d2
 706 02d2 08       		.uleb128 0x8
 707 02d3 04       		.byte	0x4
 708 02d4 D8020000 		.4byte	0x2d8
 709 02d8 0B       		.uleb128 0xb
 710 02d9 98010000 		.4byte	.LASF154
 711 02dd 01       		.byte	0x1
 712 02de 03       		.uleb128 0x3
 713 02df A9040000 		.4byte	.LASF49
 714 02e3 07       		.byte	0x7
 715 02e4 2C       		.byte	0x2c
 716 02e5 41000000 		.4byte	0x41
 717 02e9 03       		.uleb128 0x3
 718 02ea ED050000 		.4byte	.LASF50
 719 02ee 07       		.byte	0x7
 720 02ef 72       		.byte	0x72
 721 02f0 41000000 		.4byte	0x41
 722 02f4 0C       		.uleb128 0xc
 723 02f5 42030000 		.4byte	.LASF51
 724 02f9 08       		.byte	0x8
 725 02fa 6501     		.2byte	0x165
 726 02fc 6F000000 		.4byte	0x6f
ARM GAS  C:\Users\Diogo\AppData\Local\Temp\ccHaX4Zi.s 			page 17


 727 0300 0D       		.uleb128 0xd
 728 0301 04       		.byte	0x4
 729 0302 07       		.byte	0x7
 730 0303 A6       		.byte	0xa6
 731 0304 1F030000 		.4byte	0x31f
 732 0308 0E       		.uleb128 0xe
 733 0309 2A030000 		.4byte	.LASF52
 734 030d 07       		.byte	0x7
 735 030e A8       		.byte	0xa8
 736 030f F4020000 		.4byte	0x2f4
 737 0313 0E       		.uleb128 0xe
 738 0314 94020000 		.4byte	.LASF53
 739 0318 07       		.byte	0x7
 740 0319 A9       		.byte	0xa9
 741 031a 1F030000 		.4byte	0x31f
 742 031e 00       		.byte	0
 743 031f 0F       		.uleb128 0xf
 744 0320 2C000000 		.4byte	0x2c
 745 0324 2F030000 		.4byte	0x32f
 746 0328 10       		.uleb128 0x10
 747 0329 6F000000 		.4byte	0x6f
 748 032d 03       		.byte	0x3
 749 032e 00       		.byte	0
 750 032f 11       		.uleb128 0x11
 751 0330 08       		.byte	0x8
 752 0331 07       		.byte	0x7
 753 0332 A3       		.byte	0xa3
 754 0333 54030000 		.4byte	0x354
 755 0337 07       		.uleb128 0x7
 756 0338 0A040000 		.4byte	.LASF54
 757 033c 07       		.byte	0x7
 758 033d A5       		.byte	0xa5
 759 033e 68000000 		.4byte	0x68
 760 0342 02       		.byte	0x2
 761 0343 23       		.byte	0x23
 762 0344 00       		.uleb128 0
 763 0345 07       		.uleb128 0x7
 764 0346 2B060000 		.4byte	.LASF55
 765 034a 07       		.byte	0x7
 766 034b AA       		.byte	0xaa
 767 034c 00030000 		.4byte	0x300
 768 0350 02       		.byte	0x2
 769 0351 23       		.byte	0x23
 770 0352 04       		.uleb128 0x4
 771 0353 00       		.byte	0
 772 0354 03       		.uleb128 0x3
 773 0355 25050000 		.4byte	.LASF56
 774 0359 07       		.byte	0x7
 775 035a AB       		.byte	0xab
 776 035b 2F030000 		.4byte	0x32f
 777 035f 03       		.uleb128 0x3
 778 0360 1E020000 		.4byte	.LASF57
 779 0364 07       		.byte	0x7
 780 0365 AF       		.byte	0xaf
 781 0366 C7020000 		.4byte	0x2c7
 782 036a 03       		.uleb128 0x3
 783 036b 49060000 		.4byte	.LASF58
ARM GAS  C:\Users\Diogo\AppData\Local\Temp\ccHaX4Zi.s 			page 18


 784 036f 09       		.byte	0x9
 785 0370 16       		.byte	0x16
 786 0371 53000000 		.4byte	0x53
 787 0375 06       		.uleb128 0x6
 788 0376 2F020000 		.4byte	.LASF59
 789 037a 18       		.byte	0x18
 790 037b 09       		.byte	0x9
 791 037c 2F       		.byte	0x2f
 792 037d D4030000 		.4byte	0x3d4
 793 0381 07       		.uleb128 0x7
 794 0382 52020000 		.4byte	.LASF60
 795 0386 09       		.byte	0x9
 796 0387 31       		.byte	0x31
 797 0388 D4030000 		.4byte	0x3d4
 798 038c 02       		.byte	0x2
 799 038d 23       		.byte	0x23
 800 038e 00       		.uleb128 0
 801 038f 0A       		.uleb128 0xa
 802 0390 5F6B00   		.ascii	"_k\000"
 803 0393 09       		.byte	0x9
 804 0394 32       		.byte	0x32
 805 0395 68000000 		.4byte	0x68
 806 0399 02       		.byte	0x2
 807 039a 23       		.byte	0x23
 808 039b 04       		.uleb128 0x4
 809 039c 07       		.uleb128 0x7
 810 039d 9A050000 		.4byte	.LASF61
 811 03a1 09       		.byte	0x9
 812 03a2 32       		.byte	0x32
 813 03a3 68000000 		.4byte	0x68
 814 03a7 02       		.byte	0x2
 815 03a8 23       		.byte	0x23
 816 03a9 08       		.uleb128 0x8
 817 03aa 07       		.uleb128 0x7
 818 03ab 18020000 		.4byte	.LASF62
 819 03af 09       		.byte	0x9
 820 03b0 32       		.byte	0x32
 821 03b1 68000000 		.4byte	0x68
 822 03b5 02       		.byte	0x2
 823 03b6 23       		.byte	0x23
 824 03b7 0C       		.uleb128 0xc
 825 03b8 07       		.uleb128 0x7
 826 03b9 93060000 		.4byte	.LASF63
 827 03bd 09       		.byte	0x9
 828 03be 32       		.byte	0x32
 829 03bf 68000000 		.4byte	0x68
 830 03c3 02       		.byte	0x2
 831 03c4 23       		.byte	0x23
 832 03c5 10       		.uleb128 0x10
 833 03c6 0A       		.uleb128 0xa
 834 03c7 5F7800   		.ascii	"_x\000"
 835 03ca 09       		.byte	0x9
 836 03cb 33       		.byte	0x33
 837 03cc DA030000 		.4byte	0x3da
 838 03d0 02       		.byte	0x2
 839 03d1 23       		.byte	0x23
 840 03d2 14       		.uleb128 0x14
ARM GAS  C:\Users\Diogo\AppData\Local\Temp\ccHaX4Zi.s 			page 19


 841 03d3 00       		.byte	0
 842 03d4 08       		.uleb128 0x8
 843 03d5 04       		.byte	0x4
 844 03d6 75030000 		.4byte	0x375
 845 03da 0F       		.uleb128 0xf
 846 03db 6A030000 		.4byte	0x36a
 847 03df EA030000 		.4byte	0x3ea
 848 03e3 10       		.uleb128 0x10
 849 03e4 6F000000 		.4byte	0x6f
 850 03e8 00       		.byte	0
 851 03e9 00       		.byte	0
 852 03ea 06       		.uleb128 0x6
 853 03eb 70020000 		.4byte	.LASF64
 854 03ef 24       		.byte	0x24
 855 03f0 09       		.byte	0x9
 856 03f1 37       		.byte	0x37
 857 03f2 75040000 		.4byte	0x475
 858 03f6 07       		.uleb128 0x7
 859 03f7 DB000000 		.4byte	.LASF65
 860 03fb 09       		.byte	0x9
 861 03fc 39       		.byte	0x39
 862 03fd 68000000 		.4byte	0x68
 863 0401 02       		.byte	0x2
 864 0402 23       		.byte	0x23
 865 0403 00       		.uleb128 0
 866 0404 07       		.uleb128 0x7
 867 0405 06060000 		.4byte	.LASF66
 868 0409 09       		.byte	0x9
 869 040a 3A       		.byte	0x3a
 870 040b 68000000 		.4byte	0x68
 871 040f 02       		.byte	0x2
 872 0410 23       		.byte	0x23
 873 0411 04       		.uleb128 0x4
 874 0412 07       		.uleb128 0x7
 875 0413 16010000 		.4byte	.LASF67
 876 0417 09       		.byte	0x9
 877 0418 3B       		.byte	0x3b
 878 0419 68000000 		.4byte	0x68
 879 041d 02       		.byte	0x2
 880 041e 23       		.byte	0x23
 881 041f 08       		.uleb128 0x8
 882 0420 07       		.uleb128 0x7
 883 0421 3F070000 		.4byte	.LASF68
 884 0425 09       		.byte	0x9
 885 0426 3C       		.byte	0x3c
 886 0427 68000000 		.4byte	0x68
 887 042b 02       		.byte	0x2
 888 042c 23       		.byte	0x23
 889 042d 0C       		.uleb128 0xc
 890 042e 07       		.uleb128 0x7
 891 042f 23040000 		.4byte	.LASF69
 892 0433 09       		.byte	0x9
 893 0434 3D       		.byte	0x3d
 894 0435 68000000 		.4byte	0x68
 895 0439 02       		.byte	0x2
 896 043a 23       		.byte	0x23
 897 043b 10       		.uleb128 0x10
ARM GAS  C:\Users\Diogo\AppData\Local\Temp\ccHaX4Zi.s 			page 20


 898 043c 07       		.uleb128 0x7
 899 043d 73030000 		.4byte	.LASF70
 900 0441 09       		.byte	0x9
 901 0442 3E       		.byte	0x3e
 902 0443 68000000 		.4byte	0x68
 903 0447 02       		.byte	0x2
 904 0448 23       		.byte	0x23
 905 0449 14       		.uleb128 0x14
 906 044a 07       		.uleb128 0x7
 907 044b 98060000 		.4byte	.LASF71
 908 044f 09       		.byte	0x9
 909 0450 3F       		.byte	0x3f
 910 0451 68000000 		.4byte	0x68
 911 0455 02       		.byte	0x2
 912 0456 23       		.byte	0x23
 913 0457 18       		.uleb128 0x18
 914 0458 07       		.uleb128 0x7
 915 0459 07050000 		.4byte	.LASF72
 916 045d 09       		.byte	0x9
 917 045e 40       		.byte	0x40
 918 045f 68000000 		.4byte	0x68
 919 0463 02       		.byte	0x2
 920 0464 23       		.byte	0x23
 921 0465 1C       		.uleb128 0x1c
 922 0466 07       		.uleb128 0x7
 923 0467 09070000 		.4byte	.LASF73
 924 046b 09       		.byte	0x9
 925 046c 41       		.byte	0x41
 926 046d 68000000 		.4byte	0x68
 927 0471 02       		.byte	0x2
 928 0472 23       		.byte	0x23
 929 0473 20       		.uleb128 0x20
 930 0474 00       		.byte	0
 931 0475 12       		.uleb128 0x12
 932 0476 25010000 		.4byte	.LASF74
 933 047a 0801     		.2byte	0x108
 934 047c 09       		.byte	0x9
 935 047d 4A       		.byte	0x4a
 936 047e BE040000 		.4byte	0x4be
 937 0482 07       		.uleb128 0x7
 938 0483 E9010000 		.4byte	.LASF75
 939 0487 09       		.byte	0x9
 940 0488 4B       		.byte	0x4b
 941 0489 BE040000 		.4byte	0x4be
 942 048d 02       		.byte	0x2
 943 048e 23       		.byte	0x23
 944 048f 00       		.uleb128 0
 945 0490 07       		.uleb128 0x7
 946 0491 00000000 		.4byte	.LASF76
 947 0495 09       		.byte	0x9
 948 0496 4C       		.byte	0x4c
 949 0497 BE040000 		.4byte	0x4be
 950 049b 03       		.byte	0x3
 951 049c 23       		.byte	0x23
 952 049d 8001     		.uleb128 0x80
 953 049f 07       		.uleb128 0x7
 954 04a0 33060000 		.4byte	.LASF77
ARM GAS  C:\Users\Diogo\AppData\Local\Temp\ccHaX4Zi.s 			page 21


 955 04a4 09       		.byte	0x9
 956 04a5 4E       		.byte	0x4e
 957 04a6 6A030000 		.4byte	0x36a
 958 04aa 03       		.byte	0x3
 959 04ab 23       		.byte	0x23
 960 04ac 8002     		.uleb128 0x100
 961 04ae 07       		.uleb128 0x7
 962 04af 6C010000 		.4byte	.LASF78
 963 04b3 09       		.byte	0x9
 964 04b4 51       		.byte	0x51
 965 04b5 6A030000 		.4byte	0x36a
 966 04b9 03       		.byte	0x3
 967 04ba 23       		.byte	0x23
 968 04bb 8402     		.uleb128 0x104
 969 04bd 00       		.byte	0
 970 04be 0F       		.uleb128 0xf
 971 04bf 81000000 		.4byte	0x81
 972 04c3 CE040000 		.4byte	0x4ce
 973 04c7 10       		.uleb128 0x10
 974 04c8 6F000000 		.4byte	0x6f
 975 04cc 1F       		.byte	0x1f
 976 04cd 00       		.byte	0
 977 04ce 12       		.uleb128 0x12
 978 04cf E5060000 		.4byte	.LASF79
 979 04d3 9001     		.2byte	0x190
 980 04d5 09       		.byte	0x9
 981 04d6 5D       		.byte	0x5d
 982 04d7 15050000 		.4byte	0x515
 983 04db 07       		.uleb128 0x7
 984 04dc 52020000 		.4byte	.LASF60
 985 04e0 09       		.byte	0x9
 986 04e1 5E       		.byte	0x5e
 987 04e2 15050000 		.4byte	0x515
 988 04e6 02       		.byte	0x2
 989 04e7 23       		.byte	0x23
 990 04e8 00       		.uleb128 0
 991 04e9 07       		.uleb128 0x7
 992 04ea 61050000 		.4byte	.LASF80
 993 04ee 09       		.byte	0x9
 994 04ef 5F       		.byte	0x5f
 995 04f0 68000000 		.4byte	0x68
 996 04f4 02       		.byte	0x2
 997 04f5 23       		.byte	0x23
 998 04f6 04       		.uleb128 0x4
 999 04f7 07       		.uleb128 0x7
 1000 04f8 08020000 		.4byte	.LASF81
 1001 04fc 09       		.byte	0x9
 1002 04fd 61       		.byte	0x61
 1003 04fe 1B050000 		.4byte	0x51b
 1004 0502 02       		.byte	0x2
 1005 0503 23       		.byte	0x23
 1006 0504 08       		.uleb128 0x8
 1007 0505 07       		.uleb128 0x7
 1008 0506 25010000 		.4byte	.LASF74
 1009 050a 09       		.byte	0x9
 1010 050b 62       		.byte	0x62
 1011 050c 75040000 		.4byte	0x475
ARM GAS  C:\Users\Diogo\AppData\Local\Temp\ccHaX4Zi.s 			page 22


 1012 0510 03       		.byte	0x3
 1013 0511 23       		.byte	0x23
 1014 0512 8801     		.uleb128 0x88
 1015 0514 00       		.byte	0
 1016 0515 08       		.uleb128 0x8
 1017 0516 04       		.byte	0x4
 1018 0517 CE040000 		.4byte	0x4ce
 1019 051b 0F       		.uleb128 0xf
 1020 051c 2B050000 		.4byte	0x52b
 1021 0520 2B050000 		.4byte	0x52b
 1022 0524 10       		.uleb128 0x10
 1023 0525 6F000000 		.4byte	0x6f
 1024 0529 1F       		.byte	0x1f
 1025 052a 00       		.byte	0
 1026 052b 08       		.uleb128 0x8
 1027 052c 04       		.byte	0x4
 1028 052d 31050000 		.4byte	0x531
 1029 0531 13       		.uleb128 0x13
 1030 0532 01       		.byte	0x1
 1031 0533 06       		.uleb128 0x6
 1032 0534 11050000 		.4byte	.LASF82
 1033 0538 08       		.byte	0x8
 1034 0539 09       		.byte	0x9
 1035 053a 75       		.byte	0x75
 1036 053b 5C050000 		.4byte	0x55c
 1037 053f 07       		.uleb128 0x7
 1038 0540 10010000 		.4byte	.LASF83
 1039 0544 09       		.byte	0x9
 1040 0545 76       		.byte	0x76
 1041 0546 5C050000 		.4byte	0x55c
 1042 054a 02       		.byte	0x2
 1043 054b 23       		.byte	0x23
 1044 054c 00       		.uleb128 0
 1045 054d 07       		.uleb128 0x7
 1046 054e 13000000 		.4byte	.LASF84
 1047 0552 09       		.byte	0x9
 1048 0553 77       		.byte	0x77
 1049 0554 68000000 		.4byte	0x68
 1050 0558 02       		.byte	0x2
 1051 0559 23       		.byte	0x23
 1052 055a 04       		.uleb128 0x4
 1053 055b 00       		.byte	0
 1054 055c 08       		.uleb128 0x8
 1055 055d 04       		.byte	0x4
 1056 055e 2C000000 		.4byte	0x2c
 1057 0562 06       		.uleb128 0x6
 1058 0563 30050000 		.4byte	.LASF85
 1059 0567 68       		.byte	0x68
 1060 0568 09       		.byte	0x9
 1061 0569 B5       		.byte	0xb5
 1062 056a BC060000 		.4byte	0x6bc
 1063 056e 0A       		.uleb128 0xa
 1064 056f 5F7000   		.ascii	"_p\000"
 1065 0572 09       		.byte	0x9
 1066 0573 B6       		.byte	0xb6
 1067 0574 5C050000 		.4byte	0x55c
 1068 0578 02       		.byte	0x2
ARM GAS  C:\Users\Diogo\AppData\Local\Temp\ccHaX4Zi.s 			page 23


 1069 0579 23       		.byte	0x23
 1070 057a 00       		.uleb128 0
 1071 057b 0A       		.uleb128 0xa
 1072 057c 5F7200   		.ascii	"_r\000"
 1073 057f 09       		.byte	0x9
 1074 0580 B7       		.byte	0xb7
 1075 0581 68000000 		.4byte	0x68
 1076 0585 02       		.byte	0x2
 1077 0586 23       		.byte	0x23
 1078 0587 04       		.uleb128 0x4
 1079 0588 0A       		.uleb128 0xa
 1080 0589 5F7700   		.ascii	"_w\000"
 1081 058c 09       		.byte	0x9
 1082 058d B8       		.byte	0xb8
 1083 058e 68000000 		.4byte	0x68
 1084 0592 02       		.byte	0x2
 1085 0593 23       		.byte	0x23
 1086 0594 08       		.uleb128 0x8
 1087 0595 07       		.uleb128 0x7
 1088 0596 65010000 		.4byte	.LASF86
 1089 059a 09       		.byte	0x9
 1090 059b B9       		.byte	0xb9
 1091 059c 33000000 		.4byte	0x33
 1092 05a0 02       		.byte	0x2
 1093 05a1 23       		.byte	0x23
 1094 05a2 0C       		.uleb128 0xc
 1095 05a3 07       		.uleb128 0x7
 1096 05a4 D1020000 		.4byte	.LASF87
 1097 05a8 09       		.byte	0x9
 1098 05a9 BA       		.byte	0xba
 1099 05aa 33000000 		.4byte	0x33
 1100 05ae 02       		.byte	0x2
 1101 05af 23       		.byte	0x23
 1102 05b0 0E       		.uleb128 0xe
 1103 05b1 0A       		.uleb128 0xa
 1104 05b2 5F626600 		.ascii	"_bf\000"
 1105 05b6 09       		.byte	0x9
 1106 05b7 BB       		.byte	0xbb
 1107 05b8 33050000 		.4byte	0x533
 1108 05bc 02       		.byte	0x2
 1109 05bd 23       		.byte	0x23
 1110 05be 10       		.uleb128 0x10
 1111 05bf 07       		.uleb128 0x7
 1112 05c0 81000000 		.4byte	.LASF88
 1113 05c4 09       		.byte	0x9
 1114 05c5 BC       		.byte	0xbc
 1115 05c6 68000000 		.4byte	0x68
 1116 05ca 02       		.byte	0x2
 1117 05cb 23       		.byte	0x23
 1118 05cc 18       		.uleb128 0x18
 1119 05cd 07       		.uleb128 0x7
 1120 05ce 33010000 		.4byte	.LASF89
 1121 05d2 09       		.byte	0x9
 1122 05d3 C3       		.byte	0xc3
 1123 05d4 81000000 		.4byte	0x81
 1124 05d8 02       		.byte	0x2
 1125 05d9 23       		.byte	0x23
ARM GAS  C:\Users\Diogo\AppData\Local\Temp\ccHaX4Zi.s 			page 24


 1126 05da 1C       		.uleb128 0x1c
 1127 05db 07       		.uleb128 0x7
 1128 05dc 58020000 		.4byte	.LASF90
 1129 05e0 09       		.byte	0x9
 1130 05e1 C5       		.byte	0xc5
 1131 05e2 44080000 		.4byte	0x844
 1132 05e6 02       		.byte	0x2
 1133 05e7 23       		.byte	0x23
 1134 05e8 20       		.uleb128 0x20
 1135 05e9 07       		.uleb128 0x7
 1136 05ea 6C030000 		.4byte	.LASF91
 1137 05ee 09       		.byte	0x9
 1138 05ef C7       		.byte	0xc7
 1139 05f0 6F080000 		.4byte	0x86f
 1140 05f4 02       		.byte	0x2
 1141 05f5 23       		.byte	0x23
 1142 05f6 24       		.uleb128 0x24
 1143 05f7 07       		.uleb128 0x7
 1144 05f8 25060000 		.4byte	.LASF92
 1145 05fc 09       		.byte	0x9
 1146 05fd CA       		.byte	0xca
 1147 05fe 94080000 		.4byte	0x894
 1148 0602 02       		.byte	0x2
 1149 0603 23       		.byte	0x23
 1150 0604 28       		.uleb128 0x28
 1151 0605 07       		.uleb128 0x7
 1152 0606 1A070000 		.4byte	.LASF93
 1153 060a 09       		.byte	0x9
 1154 060b CB       		.byte	0xcb
 1155 060c AF080000 		.4byte	0x8af
 1156 0610 02       		.byte	0x2
 1157 0611 23       		.byte	0x23
 1158 0612 2C       		.uleb128 0x2c
 1159 0613 0A       		.uleb128 0xa
 1160 0614 5F756200 		.ascii	"_ub\000"
 1161 0618 09       		.byte	0x9
 1162 0619 CE       		.byte	0xce
 1163 061a 33050000 		.4byte	0x533
 1164 061e 02       		.byte	0x2
 1165 061f 23       		.byte	0x23
 1166 0620 30       		.uleb128 0x30
 1167 0621 0A       		.uleb128 0xa
 1168 0622 5F757000 		.ascii	"_up\000"
 1169 0626 09       		.byte	0x9
 1170 0627 CF       		.byte	0xcf
 1171 0628 5C050000 		.4byte	0x55c
 1172 062c 02       		.byte	0x2
 1173 062d 23       		.byte	0x23
 1174 062e 38       		.uleb128 0x38
 1175 062f 0A       		.uleb128 0xa
 1176 0630 5F757200 		.ascii	"_ur\000"
 1177 0634 09       		.byte	0x9
 1178 0635 D0       		.byte	0xd0
 1179 0636 68000000 		.4byte	0x68
 1180 063a 02       		.byte	0x2
 1181 063b 23       		.byte	0x23
 1182 063c 3C       		.uleb128 0x3c
ARM GAS  C:\Users\Diogo\AppData\Local\Temp\ccHaX4Zi.s 			page 25


 1183 063d 07       		.uleb128 0x7
 1184 063e 0A010000 		.4byte	.LASF94
 1185 0642 09       		.byte	0x9
 1186 0643 D3       		.byte	0xd3
 1187 0644 B5080000 		.4byte	0x8b5
 1188 0648 02       		.byte	0x2
 1189 0649 23       		.byte	0x23
 1190 064a 40       		.uleb128 0x40
 1191 064b 07       		.uleb128 0x7
 1192 064c FB060000 		.4byte	.LASF95
 1193 0650 09       		.byte	0x9
 1194 0651 D4       		.byte	0xd4
 1195 0652 C5080000 		.4byte	0x8c5
 1196 0656 02       		.byte	0x2
 1197 0657 23       		.byte	0x23
 1198 0658 43       		.uleb128 0x43
 1199 0659 0A       		.uleb128 0xa
 1200 065a 5F6C6200 		.ascii	"_lb\000"
 1201 065e 09       		.byte	0x9
 1202 065f D7       		.byte	0xd7
 1203 0660 33050000 		.4byte	0x533
 1204 0664 02       		.byte	0x2
 1205 0665 23       		.byte	0x23
 1206 0666 44       		.uleb128 0x44
 1207 0667 07       		.uleb128 0x7
 1208 0668 8F010000 		.4byte	.LASF96
 1209 066c 09       		.byte	0x9
 1210 066d DA       		.byte	0xda
 1211 066e 68000000 		.4byte	0x68
 1212 0672 02       		.byte	0x2
 1213 0673 23       		.byte	0x23
 1214 0674 4C       		.uleb128 0x4c
 1215 0675 07       		.uleb128 0x7
 1216 0676 B5010000 		.4byte	.LASF97
 1217 067a 09       		.byte	0x9
 1218 067b DB       		.byte	0xdb
 1219 067c DE020000 		.4byte	0x2de
 1220 0680 02       		.byte	0x2
 1221 0681 23       		.byte	0x23
 1222 0682 50       		.uleb128 0x50
 1223 0683 07       		.uleb128 0x7
 1224 0684 44000000 		.4byte	.LASF98
 1225 0688 09       		.byte	0x9
 1226 0689 DE       		.byte	0xde
 1227 068a DB060000 		.4byte	0x6db
 1228 068e 02       		.byte	0x2
 1229 068f 23       		.byte	0x23
 1230 0690 54       		.uleb128 0x54
 1231 0691 07       		.uleb128 0x7
 1232 0692 52030000 		.4byte	.LASF99
 1233 0696 09       		.byte	0x9
 1234 0697 E2       		.byte	0xe2
 1235 0698 5F030000 		.4byte	0x35f
 1236 069c 02       		.byte	0x2
 1237 069d 23       		.byte	0x23
 1238 069e 58       		.uleb128 0x58
 1239 069f 07       		.uleb128 0x7
ARM GAS  C:\Users\Diogo\AppData\Local\Temp\ccHaX4Zi.s 			page 26


 1240 06a0 2C000000 		.4byte	.LASF100
 1241 06a4 09       		.byte	0x9
 1242 06a5 E4       		.byte	0xe4
 1243 06a6 54030000 		.4byte	0x354
 1244 06aa 02       		.byte	0x2
 1245 06ab 23       		.byte	0x23
 1246 06ac 5C       		.uleb128 0x5c
 1247 06ad 07       		.uleb128 0x7
 1248 06ae 58030000 		.4byte	.LASF101
 1249 06b2 09       		.byte	0x9
 1250 06b3 E5       		.byte	0xe5
 1251 06b4 68000000 		.4byte	0x68
 1252 06b8 02       		.byte	0x2
 1253 06b9 23       		.byte	0x23
 1254 06ba 64       		.uleb128 0x64
 1255 06bb 00       		.byte	0
 1256 06bc 14       		.uleb128 0x14
 1257 06bd 01       		.byte	0x1
 1258 06be 68000000 		.4byte	0x68
 1259 06c2 DB060000 		.4byte	0x6db
 1260 06c6 15       		.uleb128 0x15
 1261 06c7 DB060000 		.4byte	0x6db
 1262 06cb 15       		.uleb128 0x15
 1263 06cc 81000000 		.4byte	0x81
 1264 06d0 15       		.uleb128 0x15
 1265 06d1 BA000000 		.4byte	0xba
 1266 06d5 15       		.uleb128 0x15
 1267 06d6 68000000 		.4byte	0x68
 1268 06da 00       		.byte	0
 1269 06db 08       		.uleb128 0x8
 1270 06dc 04       		.byte	0x4
 1271 06dd E6060000 		.4byte	0x6e6
 1272 06e1 09       		.uleb128 0x9
 1273 06e2 DB060000 		.4byte	0x6db
 1274 06e6 16       		.uleb128 0x16
 1275 06e7 A2050000 		.4byte	.LASF102
 1276 06eb 2804     		.2byte	0x428
 1277 06ed 09       		.byte	0x9
 1278 06ee 6002     		.2byte	0x260
 1279 06f0 44080000 		.4byte	0x844
 1280 06f4 17       		.uleb128 0x17
 1281 06f5 F5050000 		.4byte	.LASF103
 1282 06f9 09       		.byte	0x9
 1283 06fa 6202     		.2byte	0x262
 1284 06fc 68000000 		.4byte	0x68
 1285 0700 02       		.byte	0x2
 1286 0701 23       		.byte	0x23
 1287 0702 00       		.uleb128 0
 1288 0703 17       		.uleb128 0x17
 1289 0704 74010000 		.4byte	.LASF104
 1290 0708 09       		.byte	0x9
 1291 0709 6702     		.2byte	0x267
 1292 070b 22090000 		.4byte	0x922
 1293 070f 02       		.byte	0x2
 1294 0710 23       		.byte	0x23
 1295 0711 04       		.uleb128 0x4
 1296 0712 17       		.uleb128 0x17
ARM GAS  C:\Users\Diogo\AppData\Local\Temp\ccHaX4Zi.s 			page 27


 1297 0713 9B020000 		.4byte	.LASF105
 1298 0717 09       		.byte	0x9
 1299 0718 6702     		.2byte	0x267
 1300 071a 22090000 		.4byte	0x922
 1301 071e 02       		.byte	0x2
 1302 071f 23       		.byte	0x23
 1303 0720 08       		.uleb128 0x8
 1304 0721 17       		.uleb128 0x17
 1305 0722 27020000 		.4byte	.LASF106
 1306 0726 09       		.byte	0x9
 1307 0727 6702     		.2byte	0x267
 1308 0729 22090000 		.4byte	0x922
 1309 072d 02       		.byte	0x2
 1310 072e 23       		.byte	0x23
 1311 072f 0C       		.uleb128 0xc
 1312 0730 17       		.uleb128 0x17
 1313 0731 5C050000 		.4byte	.LASF107
 1314 0735 09       		.byte	0x9
 1315 0736 6902     		.2byte	0x269
 1316 0738 68000000 		.4byte	0x68
 1317 073c 02       		.byte	0x2
 1318 073d 23       		.byte	0x23
 1319 073e 10       		.uleb128 0x10
 1320 073f 17       		.uleb128 0x17
 1321 0740 21000000 		.4byte	.LASF108
 1322 0744 09       		.byte	0x9
 1323 0745 6A02     		.2byte	0x26a
 1324 0747 3D0B0000 		.4byte	0xb3d
 1325 074b 02       		.byte	0x2
 1326 074c 23       		.byte	0x23
 1327 074d 14       		.uleb128 0x14
 1328 074e 17       		.uleb128 0x17
 1329 074f 78050000 		.4byte	.LASF109
 1330 0753 09       		.byte	0x9
 1331 0754 6D02     		.2byte	0x26d
 1332 0756 68000000 		.4byte	0x68
 1333 075a 02       		.byte	0x2
 1334 075b 23       		.byte	0x23
 1335 075c 30       		.uleb128 0x30
 1336 075d 17       		.uleb128 0x17
 1337 075e 66050000 		.4byte	.LASF110
 1338 0762 09       		.byte	0x9
 1339 0763 6E02     		.2byte	0x26e
 1340 0765 530B0000 		.4byte	0xb53
 1341 0769 02       		.byte	0x2
 1342 076a 23       		.byte	0x23
 1343 076b 34       		.uleb128 0x34
 1344 076c 17       		.uleb128 0x17
 1345 076d 9E040000 		.4byte	.LASF111
 1346 0771 09       		.byte	0x9
 1347 0772 7002     		.2byte	0x270
 1348 0774 68000000 		.4byte	0x68
 1349 0778 02       		.byte	0x2
 1350 0779 23       		.byte	0x23
 1351 077a 38       		.uleb128 0x38
 1352 077b 17       		.uleb128 0x17
 1353 077c 6E050000 		.4byte	.LASF112
ARM GAS  C:\Users\Diogo\AppData\Local\Temp\ccHaX4Zi.s 			page 28


 1354 0780 09       		.byte	0x9
 1355 0781 7202     		.2byte	0x272
 1356 0783 650B0000 		.4byte	0xb65
 1357 0787 02       		.byte	0x2
 1358 0788 23       		.byte	0x23
 1359 0789 3C       		.uleb128 0x3c
 1360 078a 17       		.uleb128 0x17
 1361 078b 22030000 		.4byte	.LASF113
 1362 078f 09       		.byte	0x9
 1363 0790 7502     		.2byte	0x275
 1364 0792 D4030000 		.4byte	0x3d4
 1365 0796 02       		.byte	0x2
 1366 0797 23       		.byte	0x23
 1367 0798 40       		.uleb128 0x40
 1368 0799 17       		.uleb128 0x17
 1369 079a 5E020000 		.4byte	.LASF114
 1370 079e 09       		.byte	0x9
 1371 079f 7602     		.2byte	0x276
 1372 07a1 68000000 		.4byte	0x68
 1373 07a5 02       		.byte	0x2
 1374 07a6 23       		.byte	0x23
 1375 07a7 44       		.uleb128 0x44
 1376 07a8 17       		.uleb128 0x17
 1377 07a9 9F010000 		.4byte	.LASF115
 1378 07ad 09       		.byte	0x9
 1379 07ae 7702     		.2byte	0x277
 1380 07b0 D4030000 		.4byte	0x3d4
 1381 07b4 02       		.byte	0x2
 1382 07b5 23       		.byte	0x23
 1383 07b6 48       		.uleb128 0x48
 1384 07b7 17       		.uleb128 0x17
 1385 07b8 C0040000 		.4byte	.LASF116
 1386 07bc 09       		.byte	0x9
 1387 07bd 7802     		.2byte	0x278
 1388 07bf 6B0B0000 		.4byte	0xb6b
 1389 07c3 02       		.byte	0x2
 1390 07c4 23       		.byte	0x23
 1391 07c5 4C       		.uleb128 0x4c
 1392 07c6 17       		.uleb128 0x17
 1393 07c7 AB020000 		.4byte	.LASF117
 1394 07cb 09       		.byte	0x9
 1395 07cc 7B02     		.2byte	0x27b
 1396 07ce 68000000 		.4byte	0x68
 1397 07d2 02       		.byte	0x2
 1398 07d3 23       		.byte	0x23
 1399 07d4 50       		.uleb128 0x50
 1400 07d5 17       		.uleb128 0x17
 1401 07d6 AD010000 		.4byte	.LASF118
 1402 07da 09       		.byte	0x9
 1403 07db 7C02     		.2byte	0x27c
 1404 07dd BA000000 		.4byte	0xba
 1405 07e1 02       		.byte	0x2
 1406 07e2 23       		.byte	0x23
 1407 07e3 54       		.uleb128 0x54
 1408 07e4 17       		.uleb128 0x17
 1409 07e5 EF040000 		.4byte	.LASF119
 1410 07e9 09       		.byte	0x9
ARM GAS  C:\Users\Diogo\AppData\Local\Temp\ccHaX4Zi.s 			page 29


 1411 07ea 9F02     		.2byte	0x29f
 1412 07ec 1B0B0000 		.4byte	0xb1b
 1413 07f0 02       		.byte	0x2
 1414 07f1 23       		.byte	0x23
 1415 07f2 58       		.uleb128 0x58
 1416 07f3 17       		.uleb128 0x17
 1417 07f4 E5060000 		.4byte	.LASF79
 1418 07f8 09       		.byte	0x9
 1419 07f9 A302     		.2byte	0x2a3
 1420 07fb 15050000 		.4byte	0x515
 1421 07ff 03       		.byte	0x3
 1422 0800 23       		.byte	0x23
 1423 0801 C802     		.uleb128 0x148
 1424 0803 17       		.uleb128 0x17
 1425 0804 00030000 		.4byte	.LASF120
 1426 0808 09       		.byte	0x9
 1427 0809 A402     		.2byte	0x2a4
 1428 080b CE040000 		.4byte	0x4ce
 1429 080f 03       		.byte	0x3
 1430 0810 23       		.byte	0x23
 1431 0811 CC02     		.uleb128 0x14c
 1432 0813 17       		.uleb128 0x17
 1433 0814 DB060000 		.4byte	.LASF121
 1434 0818 09       		.byte	0x9
 1435 0819 A802     		.2byte	0x2a8
 1436 081b 7D0B0000 		.4byte	0xb7d
 1437 081f 03       		.byte	0x3
 1438 0820 23       		.byte	0x23
 1439 0821 DC05     		.uleb128 0x2dc
 1440 0823 17       		.uleb128 0x17
 1441 0824 4A010000 		.4byte	.LASF122
 1442 0828 09       		.byte	0x9
 1443 0829 AD02     		.2byte	0x2ad
 1444 082b E1080000 		.4byte	0x8e1
 1445 082f 03       		.byte	0x3
 1446 0830 23       		.byte	0x23
 1447 0831 E005     		.uleb128 0x2e0
 1448 0833 17       		.uleb128 0x17
 1449 0834 20010000 		.4byte	.LASF123
 1450 0838 09       		.byte	0x9
 1451 0839 AF02     		.2byte	0x2af
 1452 083b 890B0000 		.4byte	0xb89
 1453 083f 03       		.byte	0x3
 1454 0840 23       		.byte	0x23
 1455 0841 EC05     		.uleb128 0x2ec
 1456 0843 00       		.byte	0
 1457 0844 08       		.uleb128 0x8
 1458 0845 04       		.byte	0x4
 1459 0846 BC060000 		.4byte	0x6bc
 1460 084a 14       		.uleb128 0x14
 1461 084b 01       		.byte	0x1
 1462 084c 68000000 		.4byte	0x68
 1463 0850 69080000 		.4byte	0x869
 1464 0854 15       		.uleb128 0x15
 1465 0855 DB060000 		.4byte	0x6db
 1466 0859 15       		.uleb128 0x15
 1467 085a 81000000 		.4byte	0x81
ARM GAS  C:\Users\Diogo\AppData\Local\Temp\ccHaX4Zi.s 			page 30


 1468 085e 15       		.uleb128 0x15
 1469 085f 69080000 		.4byte	0x869
 1470 0863 15       		.uleb128 0x15
 1471 0864 68000000 		.4byte	0x68
 1472 0868 00       		.byte	0
 1473 0869 08       		.uleb128 0x8
 1474 086a 04       		.byte	0x4
 1475 086b C7000000 		.4byte	0xc7
 1476 086f 08       		.uleb128 0x8
 1477 0870 04       		.byte	0x4
 1478 0871 4A080000 		.4byte	0x84a
 1479 0875 14       		.uleb128 0x14
 1480 0876 01       		.byte	0x1
 1481 0877 E9020000 		.4byte	0x2e9
 1482 087b 94080000 		.4byte	0x894
 1483 087f 15       		.uleb128 0x15
 1484 0880 DB060000 		.4byte	0x6db
 1485 0884 15       		.uleb128 0x15
 1486 0885 81000000 		.4byte	0x81
 1487 0889 15       		.uleb128 0x15
 1488 088a E9020000 		.4byte	0x2e9
 1489 088e 15       		.uleb128 0x15
 1490 088f 68000000 		.4byte	0x68
 1491 0893 00       		.byte	0
 1492 0894 08       		.uleb128 0x8
 1493 0895 04       		.byte	0x4
 1494 0896 75080000 		.4byte	0x875
 1495 089a 14       		.uleb128 0x14
 1496 089b 01       		.byte	0x1
 1497 089c 68000000 		.4byte	0x68
 1498 08a0 AF080000 		.4byte	0x8af
 1499 08a4 15       		.uleb128 0x15
 1500 08a5 DB060000 		.4byte	0x6db
 1501 08a9 15       		.uleb128 0x15
 1502 08aa 81000000 		.4byte	0x81
 1503 08ae 00       		.byte	0
 1504 08af 08       		.uleb128 0x8
 1505 08b0 04       		.byte	0x4
 1506 08b1 9A080000 		.4byte	0x89a
 1507 08b5 0F       		.uleb128 0xf
 1508 08b6 2C000000 		.4byte	0x2c
 1509 08ba C5080000 		.4byte	0x8c5
 1510 08be 10       		.uleb128 0x10
 1511 08bf 6F000000 		.4byte	0x6f
 1512 08c3 02       		.byte	0x2
 1513 08c4 00       		.byte	0
 1514 08c5 0F       		.uleb128 0xf
 1515 08c6 2C000000 		.4byte	0x2c
 1516 08ca D5080000 		.4byte	0x8d5
 1517 08ce 10       		.uleb128 0x10
 1518 08cf 6F000000 		.4byte	0x6f
 1519 08d3 00       		.byte	0
 1520 08d4 00       		.byte	0
 1521 08d5 0C       		.uleb128 0xc
 1522 08d6 1E050000 		.4byte	.LASF124
 1523 08da 09       		.byte	0x9
 1524 08db 1F01     		.2byte	0x11f
ARM GAS  C:\Users\Diogo\AppData\Local\Temp\ccHaX4Zi.s 			page 31


 1525 08dd 62050000 		.4byte	0x562
 1526 08e1 18       		.uleb128 0x18
 1527 08e2 A2060000 		.4byte	.LASF125
 1528 08e6 0C       		.byte	0xc
 1529 08e7 09       		.byte	0x9
 1530 08e8 2301     		.2byte	0x123
 1531 08ea 1C090000 		.4byte	0x91c
 1532 08ee 17       		.uleb128 0x17
 1533 08ef 52020000 		.4byte	.LASF60
 1534 08f3 09       		.byte	0x9
 1535 08f4 2501     		.2byte	0x125
 1536 08f6 1C090000 		.4byte	0x91c
 1537 08fa 02       		.byte	0x2
 1538 08fb 23       		.byte	0x23
 1539 08fc 00       		.uleb128 0
 1540 08fd 17       		.uleb128 0x17
 1541 08fe E6020000 		.4byte	.LASF126
 1542 0902 09       		.byte	0x9
 1543 0903 2601     		.2byte	0x126
 1544 0905 68000000 		.4byte	0x68
 1545 0909 02       		.byte	0x2
 1546 090a 23       		.byte	0x23
 1547 090b 04       		.uleb128 0x4
 1548 090c 17       		.uleb128 0x17
 1549 090d 18050000 		.4byte	.LASF127
 1550 0911 09       		.byte	0x9
 1551 0912 2701     		.2byte	0x127
 1552 0914 22090000 		.4byte	0x922
 1553 0918 02       		.byte	0x2
 1554 0919 23       		.byte	0x23
 1555 091a 08       		.uleb128 0x8
 1556 091b 00       		.byte	0
 1557 091c 08       		.uleb128 0x8
 1558 091d 04       		.byte	0x4
 1559 091e E1080000 		.4byte	0x8e1
 1560 0922 08       		.uleb128 0x8
 1561 0923 04       		.byte	0x4
 1562 0924 D5080000 		.4byte	0x8d5
 1563 0928 18       		.uleb128 0x18
 1564 0929 19000000 		.4byte	.LASF128
 1565 092d 0E       		.byte	0xe
 1566 092e 09       		.byte	0x9
 1567 092f 3F01     		.2byte	0x13f
 1568 0931 63090000 		.4byte	0x963
 1569 0935 17       		.uleb128 0x17
 1570 0936 A9050000 		.4byte	.LASF129
 1571 093a 09       		.byte	0x9
 1572 093b 4001     		.2byte	0x140
 1573 093d 63090000 		.4byte	0x963
 1574 0941 02       		.byte	0x2
 1575 0942 23       		.byte	0x23
 1576 0943 00       		.uleb128 0
 1577 0944 17       		.uleb128 0x17
 1578 0945 18060000 		.4byte	.LASF130
 1579 0949 09       		.byte	0x9
 1580 094a 4101     		.2byte	0x141
 1581 094c 63090000 		.4byte	0x963
ARM GAS  C:\Users\Diogo\AppData\Local\Temp\ccHaX4Zi.s 			page 32


 1582 0950 02       		.byte	0x2
 1583 0951 23       		.byte	0x23
 1584 0952 06       		.uleb128 0x6
 1585 0953 17       		.uleb128 0x17
 1586 0954 44060000 		.4byte	.LASF131
 1587 0958 09       		.byte	0x9
 1588 0959 4201     		.2byte	0x142
 1589 095b 3A000000 		.4byte	0x3a
 1590 095f 02       		.byte	0x2
 1591 0960 23       		.byte	0x23
 1592 0961 0C       		.uleb128 0xc
 1593 0962 00       		.byte	0
 1594 0963 0F       		.uleb128 0xf
 1595 0964 3A000000 		.4byte	0x3a
 1596 0968 73090000 		.4byte	0x973
 1597 096c 10       		.uleb128 0x10
 1598 096d 6F000000 		.4byte	0x6f
 1599 0971 02       		.byte	0x2
 1600 0972 00       		.byte	0
 1601 0973 19       		.uleb128 0x19
 1602 0974 D0       		.byte	0xd0
 1603 0975 09       		.byte	0x9
 1604 0976 8002     		.2byte	0x280
 1605 0978 A30A0000 		.4byte	0xaa3
 1606 097c 17       		.uleb128 0x17
 1607 097d 7D060000 		.4byte	.LASF132
 1608 0981 09       		.byte	0x9
 1609 0982 8202     		.2byte	0x282
 1610 0984 6F000000 		.4byte	0x6f
 1611 0988 02       		.byte	0x2
 1612 0989 23       		.byte	0x23
 1613 098a 00       		.uleb128 0
 1614 098b 17       		.uleb128 0x17
 1615 098c CE010000 		.4byte	.LASF133
 1616 0990 09       		.byte	0x9
 1617 0991 8302     		.2byte	0x283
 1618 0993 BA000000 		.4byte	0xba
 1619 0997 02       		.byte	0x2
 1620 0998 23       		.byte	0x23
 1621 0999 04       		.uleb128 0x4
 1622 099a 17       		.uleb128 0x17
 1623 099b 15030000 		.4byte	.LASF134
 1624 099f 09       		.byte	0x9
 1625 09a0 8402     		.2byte	0x284
 1626 09a2 A30A0000 		.4byte	0xaa3
 1627 09a6 02       		.byte	0x2
 1628 09a7 23       		.byte	0x23
 1629 09a8 08       		.uleb128 0x8
 1630 09a9 17       		.uleb128 0x17
 1631 09aa 3B010000 		.4byte	.LASF135
 1632 09ae 09       		.byte	0x9
 1633 09af 8502     		.2byte	0x285
 1634 09b1 EA030000 		.4byte	0x3ea
 1635 09b5 02       		.byte	0x2
 1636 09b6 23       		.byte	0x23
 1637 09b7 24       		.uleb128 0x24
 1638 09b8 17       		.uleb128 0x17
ARM GAS  C:\Users\Diogo\AppData\Local\Temp\ccHaX4Zi.s 			page 33


 1639 09b9 37020000 		.4byte	.LASF136
 1640 09bd 09       		.byte	0x9
 1641 09be 8602     		.2byte	0x286
 1642 09c0 68000000 		.4byte	0x68
 1643 09c4 02       		.byte	0x2
 1644 09c5 23       		.byte	0x23
 1645 09c6 48       		.uleb128 0x48
 1646 09c7 17       		.uleb128 0x17
 1647 09c8 44050000 		.4byte	.LASF137
 1648 09cc 09       		.byte	0x9
 1649 09cd 8702     		.2byte	0x287
 1650 09cf 61000000 		.4byte	0x61
 1651 09d3 02       		.byte	0x2
 1652 09d4 23       		.byte	0x23
 1653 09d5 50       		.uleb128 0x50
 1654 09d6 17       		.uleb128 0x17
 1655 09d7 21070000 		.4byte	.LASF138
 1656 09db 09       		.byte	0x9
 1657 09dc 8802     		.2byte	0x288
 1658 09de 28090000 		.4byte	0x928
 1659 09e2 02       		.byte	0x2
 1660 09e3 23       		.byte	0x23
 1661 09e4 58       		.uleb128 0x58
 1662 09e5 17       		.uleb128 0x17
 1663 09e6 4F050000 		.4byte	.LASF139
 1664 09ea 09       		.byte	0x9
 1665 09eb 8902     		.2byte	0x289
 1666 09ed 54030000 		.4byte	0x354
 1667 09f1 02       		.byte	0x2
 1668 09f2 23       		.byte	0x23
 1669 09f3 68       		.uleb128 0x68
 1670 09f4 17       		.uleb128 0x17
 1671 09f5 26070000 		.4byte	.LASF140
 1672 09f9 09       		.byte	0x9
 1673 09fa 8A02     		.2byte	0x28a
 1674 09fc 54030000 		.4byte	0x354
 1675 0a00 02       		.byte	0x2
 1676 0a01 23       		.byte	0x23
 1677 0a02 70       		.uleb128 0x70
 1678 0a03 17       		.uleb128 0x17
 1679 0a04 CA040000 		.4byte	.LASF141
 1680 0a08 09       		.byte	0x9
 1681 0a09 8B02     		.2byte	0x28b
 1682 0a0b 54030000 		.4byte	0x354
 1683 0a0f 02       		.byte	0x2
 1684 0a10 23       		.byte	0x23
 1685 0a11 78       		.uleb128 0x78
 1686 0a12 17       		.uleb128 0x17
 1687 0a13 CC060000 		.4byte	.LASF142
 1688 0a17 09       		.byte	0x9
 1689 0a18 8C02     		.2byte	0x28c
 1690 0a1a B30A0000 		.4byte	0xab3
 1691 0a1e 03       		.byte	0x3
 1692 0a1f 23       		.byte	0x23
 1693 0a20 8001     		.uleb128 0x80
 1694 0a22 17       		.uleb128 0x17
 1695 0a23 09030000 		.4byte	.LASF143
ARM GAS  C:\Users\Diogo\AppData\Local\Temp\ccHaX4Zi.s 			page 34


 1696 0a27 09       		.byte	0x9
 1697 0a28 8D02     		.2byte	0x28d
 1698 0a2a C30A0000 		.4byte	0xac3
 1699 0a2e 03       		.byte	0x3
 1700 0a2f 23       		.byte	0x23
 1701 0a30 8801     		.uleb128 0x88
 1702 0a32 17       		.uleb128 0x17
 1703 0a33 51060000 		.4byte	.LASF144
 1704 0a37 09       		.byte	0x9
 1705 0a38 8E02     		.2byte	0x28e
 1706 0a3a 68000000 		.4byte	0x68
 1707 0a3e 03       		.byte	0x3
 1708 0a3f 23       		.byte	0x23
 1709 0a40 A001     		.uleb128 0xa0
 1710 0a42 17       		.uleb128 0x17
 1711 0a43 DB010000 		.4byte	.LASF145
 1712 0a47 09       		.byte	0x9
 1713 0a48 8F02     		.2byte	0x28f
 1714 0a4a 54030000 		.4byte	0x354
 1715 0a4e 03       		.byte	0x3
 1716 0a4f 23       		.byte	0x23
 1717 0a50 A401     		.uleb128 0xa4
 1718 0a52 17       		.uleb128 0x17
 1719 0a53 B2000000 		.4byte	.LASF146
 1720 0a57 09       		.byte	0x9
 1721 0a58 9002     		.2byte	0x290
 1722 0a5a 54030000 		.4byte	0x354
 1723 0a5e 03       		.byte	0x3
 1724 0a5f 23       		.byte	0x23
 1725 0a60 AC01     		.uleb128 0xac
 1726 0a62 17       		.uleb128 0x17
 1727 0a63 BD010000 		.4byte	.LASF147
 1728 0a67 09       		.byte	0x9
 1729 0a68 9102     		.2byte	0x291
 1730 0a6a 54030000 		.4byte	0x354
 1731 0a6e 03       		.byte	0x3
 1732 0a6f 23       		.byte	0x23
 1733 0a70 B401     		.uleb128 0xb4
 1734 0a72 17       		.uleb128 0x17
 1735 0a73 4A000000 		.4byte	.LASF148
 1736 0a77 09       		.byte	0x9
 1737 0a78 9202     		.2byte	0x292
 1738 0a7a 54030000 		.4byte	0x354
 1739 0a7e 03       		.byte	0x3
 1740 0a7f 23       		.byte	0x23
 1741 0a80 BC01     		.uleb128 0xbc
 1742 0a82 17       		.uleb128 0x17
 1743 0a83 59000000 		.4byte	.LASF149
 1744 0a87 09       		.byte	0x9
 1745 0a88 9302     		.2byte	0x293
 1746 0a8a 54030000 		.4byte	0x354
 1747 0a8e 03       		.byte	0x3
 1748 0a8f 23       		.byte	0x23
 1749 0a90 C401     		.uleb128 0xc4
 1750 0a92 17       		.uleb128 0x17
 1751 0a93 F4040000 		.4byte	.LASF150
 1752 0a97 09       		.byte	0x9
ARM GAS  C:\Users\Diogo\AppData\Local\Temp\ccHaX4Zi.s 			page 35


 1753 0a98 9402     		.2byte	0x294
 1754 0a9a 68000000 		.4byte	0x68
 1755 0a9e 03       		.byte	0x3
 1756 0a9f 23       		.byte	0x23
 1757 0aa0 CC01     		.uleb128 0xcc
 1758 0aa2 00       		.byte	0
 1759 0aa3 0F       		.uleb128 0xf
 1760 0aa4 C0000000 		.4byte	0xc0
 1761 0aa8 B30A0000 		.4byte	0xab3
 1762 0aac 10       		.uleb128 0x10
 1763 0aad 6F000000 		.4byte	0x6f
 1764 0ab1 19       		.byte	0x19
 1765 0ab2 00       		.byte	0
 1766 0ab3 0F       		.uleb128 0xf
 1767 0ab4 C0000000 		.4byte	0xc0
 1768 0ab8 C30A0000 		.4byte	0xac3
 1769 0abc 10       		.uleb128 0x10
 1770 0abd 6F000000 		.4byte	0x6f
 1771 0ac1 07       		.byte	0x7
 1772 0ac2 00       		.byte	0
 1773 0ac3 0F       		.uleb128 0xf
 1774 0ac4 C0000000 		.4byte	0xc0
 1775 0ac8 D30A0000 		.4byte	0xad3
 1776 0acc 10       		.uleb128 0x10
 1777 0acd 6F000000 		.4byte	0x6f
 1778 0ad1 17       		.byte	0x17
 1779 0ad2 00       		.byte	0
 1780 0ad3 19       		.uleb128 0x19
 1781 0ad4 F0       		.byte	0xf0
 1782 0ad5 09       		.byte	0x9
 1783 0ad6 9902     		.2byte	0x299
 1784 0ad8 FB0A0000 		.4byte	0xafb
 1785 0adc 17       		.uleb128 0x17
 1786 0add 5B040000 		.4byte	.LASF151
 1787 0ae1 09       		.byte	0x9
 1788 0ae2 9C02     		.2byte	0x29c
 1789 0ae4 FB0A0000 		.4byte	0xafb
 1790 0ae8 02       		.byte	0x2
 1791 0ae9 23       		.byte	0x23
 1792 0aea 00       		.uleb128 0
 1793 0aeb 17       		.uleb128 0x17
 1794 0aec C3060000 		.4byte	.LASF152
 1795 0af0 09       		.byte	0x9
 1796 0af1 9D02     		.2byte	0x29d
 1797 0af3 0B0B0000 		.4byte	0xb0b
 1798 0af7 02       		.byte	0x2
 1799 0af8 23       		.byte	0x23
 1800 0af9 78       		.uleb128 0x78
 1801 0afa 00       		.byte	0
 1802 0afb 0F       		.uleb128 0xf
 1803 0afc 5C050000 		.4byte	0x55c
 1804 0b00 0B0B0000 		.4byte	0xb0b
 1805 0b04 10       		.uleb128 0x10
 1806 0b05 6F000000 		.4byte	0x6f
 1807 0b09 1D       		.byte	0x1d
 1808 0b0a 00       		.byte	0
 1809 0b0b 0F       		.uleb128 0xf
ARM GAS  C:\Users\Diogo\AppData\Local\Temp\ccHaX4Zi.s 			page 36


 1810 0b0c 6F000000 		.4byte	0x6f
 1811 0b10 1B0B0000 		.4byte	0xb1b
 1812 0b14 10       		.uleb128 0x10
 1813 0b15 6F000000 		.4byte	0x6f
 1814 0b19 1D       		.byte	0x1d
 1815 0b1a 00       		.byte	0
 1816 0b1b 1A       		.uleb128 0x1a
 1817 0b1c F0       		.byte	0xf0
 1818 0b1d 09       		.byte	0x9
 1819 0b1e 7E02     		.2byte	0x27e
 1820 0b20 3D0B0000 		.4byte	0xb3d
 1821 0b24 1B       		.uleb128 0x1b
 1822 0b25 A2050000 		.4byte	.LASF102
 1823 0b29 09       		.byte	0x9
 1824 0b2a 9502     		.2byte	0x295
 1825 0b2c 73090000 		.4byte	0x973
 1826 0b30 1B       		.uleb128 0x1b
 1827 0b31 01070000 		.4byte	.LASF153
 1828 0b35 09       		.byte	0x9
 1829 0b36 9E02     		.2byte	0x29e
 1830 0b38 D30A0000 		.4byte	0xad3
 1831 0b3c 00       		.byte	0
 1832 0b3d 0F       		.uleb128 0xf
 1833 0b3e C0000000 		.4byte	0xc0
 1834 0b42 4D0B0000 		.4byte	0xb4d
 1835 0b46 10       		.uleb128 0x10
 1836 0b47 6F000000 		.4byte	0x6f
 1837 0b4b 18       		.byte	0x18
 1838 0b4c 00       		.byte	0
 1839 0b4d 0B       		.uleb128 0xb
 1840 0b4e 95000000 		.4byte	.LASF155
 1841 0b52 01       		.byte	0x1
 1842 0b53 08       		.uleb128 0x8
 1843 0b54 04       		.byte	0x4
 1844 0b55 4D0B0000 		.4byte	0xb4d
 1845 0b59 1C       		.uleb128 0x1c
 1846 0b5a 01       		.byte	0x1
 1847 0b5b 650B0000 		.4byte	0xb65
 1848 0b5f 15       		.uleb128 0x15
 1849 0b60 DB060000 		.4byte	0x6db
 1850 0b64 00       		.byte	0
 1851 0b65 08       		.uleb128 0x8
 1852 0b66 04       		.byte	0x4
 1853 0b67 590B0000 		.4byte	0xb59
 1854 0b6b 08       		.uleb128 0x8
 1855 0b6c 04       		.byte	0x4
 1856 0b6d D4030000 		.4byte	0x3d4
 1857 0b71 1C       		.uleb128 0x1c
 1858 0b72 01       		.byte	0x1
 1859 0b73 7D0B0000 		.4byte	0xb7d
 1860 0b77 15       		.uleb128 0x15
 1861 0b78 68000000 		.4byte	0x68
 1862 0b7c 00       		.byte	0
 1863 0b7d 08       		.uleb128 0x8
 1864 0b7e 04       		.byte	0x4
 1865 0b7f 830B0000 		.4byte	0xb83
 1866 0b83 08       		.uleb128 0x8
ARM GAS  C:\Users\Diogo\AppData\Local\Temp\ccHaX4Zi.s 			page 37


 1867 0b84 04       		.byte	0x4
 1868 0b85 710B0000 		.4byte	0xb71
 1869 0b89 0F       		.uleb128 0xf
 1870 0b8a D5080000 		.4byte	0x8d5
 1871 0b8e 990B0000 		.4byte	0xb99
 1872 0b92 10       		.uleb128 0x10
 1873 0b93 6F000000 		.4byte	0x6f
 1874 0b97 02       		.byte	0x2
 1875 0b98 00       		.byte	0
 1876 0b99 1D       		.uleb128 0x1d
 1877 0b9a E1050000 		.4byte	.LASF156
 1878 0b9e 09       		.byte	0x9
 1879 0b9f 2E03     		.2byte	0x32e
 1880 0ba1 DB060000 		.4byte	0x6db
 1881 0ba5 01       		.byte	0x1
 1882 0ba6 01       		.byte	0x1
 1883 0ba7 1D       		.uleb128 0x1d
 1884 0ba8 6A060000 		.4byte	.LASF157
 1885 0bac 09       		.byte	0x9
 1886 0bad 2F03     		.2byte	0x32f
 1887 0baf E1060000 		.4byte	0x6e1
 1888 0bb3 01       		.byte	0x1
 1889 0bb4 01       		.byte	0x1
 1890 0bb5 1E       		.uleb128 0x1e
 1891 0bb6 12040000 		.4byte	.LASF158
 1892 0bba 0A       		.byte	0xa
 1893 0bbb 63       		.byte	0x63
 1894 0bbc BA000000 		.4byte	0xba
 1895 0bc0 01       		.byte	0x1
 1896 0bc1 01       		.byte	0x1
 1897 0bc2 1F       		.uleb128 0x1f
 1898 0bc3 46020000 		.4byte	.LASF159
 1899 0bc7 0B       		.byte	0xb
 1900 0bc8 0C       		.byte	0xc
 1901 0bc9 52020000 		.4byte	0x252
 1902 0bcd 01       		.byte	0x1
 1903 0bce 05       		.byte	0x5
 1904 0bcf 03       		.byte	0x3
 1905 0bd0 00000000 		.4byte	ContextPing
 1906 0bd4 1F       		.uleb128 0x1f
 1907 0bd5 5E060000 		.4byte	.LASF160
 1908 0bd9 0B       		.byte	0xb
 1909 0bda 0C       		.byte	0xc
 1910 0bdb 52020000 		.4byte	0x252
 1911 0bdf 01       		.byte	0x1
 1912 0be0 05       		.byte	0x5
 1913 0be1 03       		.byte	0x3
 1914 0be2 00000000 		.4byte	ContextPong
 1915 0be6 1F       		.uleb128 0x1f
 1916 0be7 60030000 		.4byte	.LASF161
 1917 0beb 0B       		.byte	0xb
 1918 0bec 0C       		.byte	0xc
 1919 0bed 52020000 		.4byte	0x252
 1920 0bf1 01       		.byte	0x1
 1921 0bf2 05       		.byte	0x5
 1922 0bf3 03       		.byte	0x3
 1923 0bf4 00000000 		.4byte	ContextMain
ARM GAS  C:\Users\Diogo\AppData\Local\Temp\ccHaX4Zi.s 			page 38


 1924 0bf8 1F       		.uleb128 0x1f
 1925 0bf9 D7020000 		.4byte	.LASF162
 1926 0bfd 01       		.byte	0x1
 1927 0bfe 40       		.byte	0x40
 1928 0bff 76000000 		.4byte	0x76
 1929 0c03 01       		.byte	0x1
 1930 0c04 05       		.byte	0x5
 1931 0c05 03       		.byte	0x3
 1932 0c06 00000000 		.4byte	g_ui32SysClock
 1933 0c0a 20       		.uleb128 0x20
 1934 0c0b 01       		.byte	0x1
 1935 0c0c 3A070000 		.4byte	.LASF185
 1936 0c10 01       		.byte	0x1
 1937 0c11 73       		.byte	0x73
 1938 0c12 01       		.byte	0x1
 1939 0c13 68000000 		.4byte	0x68
 1940 0c17 74000000 		.4byte	.LFB5
 1941 0c1b 58010000 		.4byte	.LFE5
 1942 0c1f 00000000 		.4byte	.LLST4
 1943 0c23 01       		.byte	0x1
 1944 0c24 F00D0000 		.4byte	0xdf0
 1945 0c28 21       		.uleb128 0x21
 1946 0c29 89010000 		.4byte	.LASF165
 1947 0c2d 01       		.byte	0x1
 1948 0c2e 75       		.byte	0x75
 1949 0c2f F00D0000 		.4byte	0xdf0
 1950 0c33 22       		.uleb128 0x22
 1951 0c34 D6060000 		.4byte	.LASF163
 1952 0c38 01       		.byte	0x1
 1953 0c39 76       		.byte	0x76
 1954 0c3a 76000000 		.4byte	0x76
 1955 0c3e 00       		.byte	0
 1956 0c3f 23       		.uleb128 0x23
 1957 0c40 49030000 		.4byte	.LASF164
 1958 0c44 01       		.byte	0x1
 1959 0c45 77       		.byte	0x77
 1960 0c46 68000000 		.4byte	0x68
 1961 0c4a 20000000 		.4byte	.LLST5
 1962 0c4e 21       		.uleb128 0x21
 1963 0c4f 91050000 		.4byte	.LASF166
 1964 0c53 01       		.byte	0x1
 1965 0c54 78       		.byte	0x78
 1966 0c55 000E0000 		.4byte	0xe00
 1967 0c59 23       		.uleb128 0x23
 1968 0c5a 5B010000 		.4byte	.LASF167
 1969 0c5e 01       		.byte	0x1
 1970 0c5f 78       		.byte	0x78
 1971 0c60 000E0000 		.4byte	0xe00
 1972 0c64 34000000 		.4byte	.LLST6
 1973 0c68 23       		.uleb128 0x23
 1974 0c69 A8000000 		.4byte	.LASF168
 1975 0c6d 01       		.byte	0x1
 1976 0c6e 78       		.byte	0x78
 1977 0c6f 000E0000 		.4byte	0xe00
 1978 0c73 52000000 		.4byte	.LLST7
 1979 0c77 24       		.uleb128 0x24
 1980 0c78 01       		.byte	0x1
ARM GAS  C:\Users\Diogo\AppData\Local\Temp\ccHaX4Zi.s 			page 39


 1981 0c79 7B010000 		.4byte	.LASF178
 1982 0c7d 01       		.byte	0x1
 1983 0c7e 9C       		.byte	0x9c
 1984 0c7f 68000000 		.4byte	0x68
 1985 0c83 01       		.byte	0x1
 1986 0c84 8A0C0000 		.4byte	0xc8a
 1987 0c88 25       		.uleb128 0x25
 1988 0c89 00       		.byte	0
 1989 0c8a 26       		.uleb128 0x26
 1990 0c8b 86000000 		.4byte	.LVL12
 1991 0c8f A70C0000 		.4byte	0xca7
 1992 0c93 27       		.uleb128 0x27
 1993 0c94 01       		.byte	0x1
 1994 0c95 50       		.byte	0x50
 1995 0c96 06       		.byte	0x6
 1996 0c97 11       		.byte	0x11
 1997 0c98 808D8088 		.sleb128 -251656576
 1997      7F
 1998 0c9d 27       		.uleb128 0x27
 1999 0c9e 01       		.byte	0x1
 2000 0c9f 51       		.byte	0x51
 2001 0ca0 05       		.byte	0x5
 2002 0ca1 0C       		.byte	0xc
 2003 0ca2 000E2707 		.4byte	0x7270e00
 2004 0ca6 00       		.byte	0
 2005 0ca7 28       		.uleb128 0x28
 2006 0ca8 92000000 		.4byte	.LVL13
 2007 0cac 0A0F0000 		.4byte	0xf0a
 2008 0cb0 BF0C0000 		.4byte	0xcbf
 2009 0cb4 27       		.uleb128 0x27
 2010 0cb5 01       		.byte	0x1
 2011 0cb6 50       		.byte	0x50
 2012 0cb7 01       		.byte	0x1
 2013 0cb8 30       		.byte	0x30
 2014 0cb9 27       		.uleb128 0x27
 2015 0cba 01       		.byte	0x1
 2016 0cbb 51       		.byte	0x51
 2017 0cbc 01       		.byte	0x1
 2018 0cbd 30       		.byte	0x30
 2019 0cbe 00       		.byte	0
 2020 0cbf 26       		.uleb128 0x26
 2021 0cc0 A0000000 		.4byte	.LVL14
 2022 0cc4 D40C0000 		.4byte	0xcd4
 2023 0cc8 27       		.uleb128 0x27
 2024 0cc9 01       		.byte	0x1
 2025 0cca 50       		.byte	0x50
 2026 0ccb 02       		.byte	0x2
 2027 0ccc 74       		.byte	0x74
 2028 0ccd 00       		.sleb128 0
 2029 0cce 27       		.uleb128 0x27
 2030 0ccf 01       		.byte	0x1
 2031 0cd0 51       		.byte	0x51
 2032 0cd1 01       		.byte	0x1
 2033 0cd2 32       		.byte	0x32
 2034 0cd3 00       		.byte	0
 2035 0cd4 26       		.uleb128 0x26
 2036 0cd5 AA000000 		.4byte	.LVL15
ARM GAS  C:\Users\Diogo\AppData\Local\Temp\ccHaX4Zi.s 			page 40


 2037 0cd9 E90C0000 		.4byte	0xce9
 2038 0cdd 27       		.uleb128 0x27
 2039 0cde 01       		.byte	0x1
 2040 0cdf 50       		.byte	0x50
 2041 0ce0 02       		.byte	0x2
 2042 0ce1 74       		.byte	0x74
 2043 0ce2 00       		.sleb128 0
 2044 0ce3 27       		.uleb128 0x27
 2045 0ce4 01       		.byte	0x1
 2046 0ce5 51       		.byte	0x51
 2047 0ce6 01       		.byte	0x1
 2048 0ce7 34       		.byte	0x34
 2049 0ce8 00       		.byte	0
 2050 0ce9 29       		.uleb128 0x29
 2051 0cea AE000000 		.4byte	.LVL16
 2052 0cee 060E0000 		.4byte	0xe06
 2053 0cf2 28       		.uleb128 0x28
 2054 0cf3 B4000000 		.4byte	.LVL17
 2055 0cf7 170F0000 		.4byte	0xf17
 2056 0cfb 090D0000 		.4byte	0xd09
 2057 0cff 27       		.uleb128 0x27
 2058 0d00 01       		.byte	0x1
 2059 0d01 50       		.byte	0x50
 2060 0d02 05       		.byte	0x5
 2061 0d03 03       		.byte	0x3
 2062 0d04 08000000 		.4byte	.LC1
 2063 0d08 00       		.byte	0
 2064 0d09 29       		.uleb128 0x29
 2065 0d0a B8000000 		.4byte	.LVL18
 2066 0d0e 240F0000 		.4byte	0xf24
 2067 0d12 28       		.uleb128 0x28
 2068 0d13 BE000000 		.4byte	.LVL19
 2069 0d17 310F0000 		.4byte	0xf31
 2070 0d1b 250D0000 		.4byte	0xd25
 2071 0d1f 27       		.uleb128 0x27
 2072 0d20 01       		.byte	0x1
 2073 0d21 50       		.byte	0x50
 2074 0d22 01       		.byte	0x1
 2075 0d23 34       		.byte	0x34
 2076 0d24 00       		.byte	0
 2077 0d25 28       		.uleb128 0x28
 2078 0d26 C6000000 		.4byte	.LVL22
 2079 0d2a 310F0000 		.4byte	0xf31
 2080 0d2e 380D0000 		.4byte	0xd38
 2081 0d32 27       		.uleb128 0x27
 2082 0d33 01       		.byte	0x1
 2083 0d34 50       		.byte	0x50
 2084 0d35 01       		.byte	0x1
 2085 0d36 34       		.byte	0x34
 2086 0d37 00       		.byte	0
 2087 0d38 28       		.uleb128 0x28
 2088 0d39 D4000000 		.4byte	.LVL25
 2089 0d3d 3E0F0000 		.4byte	0xf3e
 2090 0d41 520D0000 		.4byte	0xd52
 2091 0d45 27       		.uleb128 0x27
 2092 0d46 01       		.byte	0x1
 2093 0d47 50       		.byte	0x50
ARM GAS  C:\Users\Diogo\AppData\Local\Temp\ccHaX4Zi.s 			page 41


 2094 0d48 02       		.byte	0x2
 2095 0d49 76       		.byte	0x76
 2096 0d4a 00       		.sleb128 0
 2097 0d4b 27       		.uleb128 0x27
 2098 0d4c 01       		.byte	0x1
 2099 0d4d 52       		.byte	0x52
 2100 0d4e 02       		.byte	0x2
 2101 0d4f 74       		.byte	0x74
 2102 0d50 00       		.sleb128 0
 2103 0d51 00       		.byte	0
 2104 0d52 28       		.uleb128 0x28
 2105 0d53 DE000000 		.4byte	.LVL26
 2106 0d57 3E0F0000 		.4byte	0xf3e
 2107 0d5b 6C0D0000 		.4byte	0xd6c
 2108 0d5f 27       		.uleb128 0x27
 2109 0d60 01       		.byte	0x1
 2110 0d61 50       		.byte	0x50
 2111 0d62 02       		.byte	0x2
 2112 0d63 75       		.byte	0x75
 2113 0d64 00       		.sleb128 0
 2114 0d65 27       		.uleb128 0x27
 2115 0d66 01       		.byte	0x1
 2116 0d67 52       		.byte	0x52
 2117 0d68 02       		.byte	0x2
 2118 0d69 74       		.byte	0x74
 2119 0d6a 00       		.sleb128 0
 2120 0d6b 00       		.byte	0
 2121 0d6c 29       		.uleb128 0x29
 2122 0d6d E2000000 		.4byte	.LVL27
 2123 0d71 4B0F0000 		.4byte	0xf4b
 2124 0d75 28       		.uleb128 0x28
 2125 0d76 F0000000 		.4byte	.LVL29
 2126 0d7a 580F0000 		.4byte	0xf58
 2127 0d7e 8F0D0000 		.4byte	0xd8f
 2128 0d82 27       		.uleb128 0x27
 2129 0d83 01       		.byte	0x1
 2130 0d84 50       		.byte	0x50
 2131 0d85 02       		.byte	0x2
 2132 0d86 74       		.byte	0x74
 2133 0d87 00       		.sleb128 0
 2134 0d88 27       		.uleb128 0x27
 2135 0d89 01       		.byte	0x1
 2136 0d8a 51       		.byte	0x51
 2137 0d8b 02       		.byte	0x2
 2138 0d8c 74       		.byte	0x74
 2139 0d8d 00       		.sleb128 0
 2140 0d8e 00       		.byte	0
 2141 0d8f 28       		.uleb128 0x28
 2142 0d90 F8000000 		.4byte	.LVL30
 2143 0d94 580F0000 		.4byte	0xf58
 2144 0d98 A90D0000 		.4byte	0xda9
 2145 0d9c 27       		.uleb128 0x27
 2146 0d9d 01       		.byte	0x1
 2147 0d9e 50       		.byte	0x50
 2148 0d9f 02       		.byte	0x2
 2149 0da0 76       		.byte	0x76
 2150 0da1 00       		.sleb128 0
ARM GAS  C:\Users\Diogo\AppData\Local\Temp\ccHaX4Zi.s 			page 42


 2151 0da2 27       		.uleb128 0x27
 2152 0da3 01       		.byte	0x1
 2153 0da4 51       		.byte	0x51
 2154 0da5 02       		.byte	0x2
 2155 0da6 77       		.byte	0x77
 2156 0da7 00       		.sleb128 0
 2157 0da8 00       		.byte	0
 2158 0da9 29       		.uleb128 0x29
 2159 0daa 0C010000 		.4byte	.LVL31
 2160 0dae 650F0000 		.4byte	0xf65
 2161 0db2 28       		.uleb128 0x28
 2162 0db3 14010000 		.4byte	.LVL32
 2163 0db7 580F0000 		.4byte	0xf58
 2164 0dbb CC0D0000 		.4byte	0xdcc
 2165 0dbf 27       		.uleb128 0x27
 2166 0dc0 01       		.byte	0x1
 2167 0dc1 50       		.byte	0x50
 2168 0dc2 02       		.byte	0x2
 2169 0dc3 74       		.byte	0x74
 2170 0dc4 00       		.sleb128 0
 2171 0dc5 27       		.uleb128 0x27
 2172 0dc6 01       		.byte	0x1
 2173 0dc7 51       		.byte	0x51
 2174 0dc8 02       		.byte	0x2
 2175 0dc9 77       		.byte	0x77
 2176 0dca 00       		.sleb128 0
 2177 0dcb 00       		.byte	0
 2178 0dcc 28       		.uleb128 0x28
 2179 0dcd 1C010000 		.4byte	.LVL33
 2180 0dd1 580F0000 		.4byte	0xf58
 2181 0dd5 E60D0000 		.4byte	0xde6
 2182 0dd9 27       		.uleb128 0x27
 2183 0dda 01       		.byte	0x1
 2184 0ddb 50       		.byte	0x50
 2185 0ddc 02       		.byte	0x2
 2186 0ddd 76       		.byte	0x76
 2187 0dde 00       		.sleb128 0
 2188 0ddf 27       		.uleb128 0x27
 2189 0de0 01       		.byte	0x1
 2190 0de1 51       		.byte	0x51
 2191 0de2 02       		.byte	0x2
 2192 0de3 74       		.byte	0x74
 2193 0de4 00       		.sleb128 0
 2194 0de5 00       		.byte	0
 2195 0de6 29       		.uleb128 0x29
 2196 0de7 2A010000 		.4byte	.LVL34
 2197 0deb 650F0000 		.4byte	0xf65
 2198 0def 00       		.byte	0
 2199 0df0 0F       		.uleb128 0xf
 2200 0df1 C0000000 		.4byte	0xc0
 2201 0df5 000E0000 		.4byte	0xe00
 2202 0df9 10       		.uleb128 0x10
 2203 0dfa 6F000000 		.4byte	0x6f
 2204 0dfe 09       		.byte	0x9
 2205 0dff 00       		.byte	0
 2206 0e00 08       		.uleb128 0x8
 2207 0e01 04       		.byte	0x4
ARM GAS  C:\Users\Diogo\AppData\Local\Temp\ccHaX4Zi.s 			page 43


 2208 0e02 B5020000 		.4byte	0x2b5
 2209 0e06 2A       		.uleb128 0x2a
 2210 0e07 01       		.byte	0x1
 2211 0e08 ED060000 		.4byte	.LASF169
 2212 0e0c 01       		.byte	0x1
 2213 0e0d 53       		.byte	0x53
 2214 0e0e 01       		.byte	0x1
 2215 0e0f 14000000 		.4byte	.LFB4
 2216 0e13 74000000 		.4byte	.LFE4
 2217 0e17 70000000 		.4byte	.LLST3
 2218 0e1b 01       		.byte	0x1
 2219 0e1c B00E0000 		.4byte	0xeb0
 2220 0e20 26       		.uleb128 0x26
 2221 0e21 20000000 		.4byte	.LVL4
 2222 0e25 340E0000 		.4byte	0xe34
 2223 0e29 27       		.uleb128 0x27
 2224 0e2a 01       		.byte	0x1
 2225 0e2b 50       		.byte	0x50
 2226 0e2c 06       		.byte	0x6
 2227 0e2d 11       		.byte	0x11
 2228 0e2e 80908080 		.sleb128 -268433408
 2228      7F
 2229 0e33 00       		.byte	0
 2230 0e34 26       		.uleb128 0x26
 2231 0e35 28000000 		.4byte	.LVL5
 2232 0e39 480E0000 		.4byte	0xe48
 2233 0e3d 27       		.uleb128 0x27
 2234 0e3e 01       		.byte	0x1
 2235 0e3f 50       		.byte	0x50
 2236 0e40 06       		.byte	0x6
 2237 0e41 11       		.byte	0x11
 2238 0e42 80B08080 		.sleb128 -268429312
 2238      7F
 2239 0e47 00       		.byte	0
 2240 0e48 26       		.uleb128 0x26
 2241 0e49 32000000 		.4byte	.LVL6
 2242 0e4d 570E0000 		.4byte	0xe57
 2243 0e51 27       		.uleb128 0x27
 2244 0e52 01       		.byte	0x1
 2245 0e53 50       		.byte	0x50
 2246 0e54 01       		.byte	0x1
 2247 0e55 31       		.byte	0x31
 2248 0e56 00       		.byte	0
 2249 0e57 26       		.uleb128 0x26
 2250 0e58 3C000000 		.4byte	.LVL7
 2251 0e5c 680E0000 		.4byte	0xe68
 2252 0e60 27       		.uleb128 0x27
 2253 0e61 01       		.byte	0x1
 2254 0e62 50       		.byte	0x50
 2255 0e63 03       		.byte	0x3
 2256 0e64 0A       		.byte	0xa
 2257 0e65 0104     		.2byte	0x401
 2258 0e67 00       		.byte	0
 2259 0e68 26       		.uleb128 0x26
 2260 0e69 48000000 		.4byte	.LVL8
 2261 0e6d 800E0000 		.4byte	0xe80
 2262 0e71 27       		.uleb128 0x27
ARM GAS  C:\Users\Diogo\AppData\Local\Temp\ccHaX4Zi.s 			page 44


 2263 0e72 01       		.byte	0x1
 2264 0e73 50       		.byte	0x50
 2265 0e74 05       		.byte	0x5
 2266 0e75 0C       		.byte	0xc
 2267 0e76 00400040 		.4byte	0x40004000
 2268 0e7a 27       		.uleb128 0x27
 2269 0e7b 01       		.byte	0x1
 2270 0e7c 51       		.byte	0x51
 2271 0e7d 01       		.byte	0x1
 2272 0e7e 33       		.byte	0x33
 2273 0e7f 00       		.byte	0
 2274 0e80 26       		.uleb128 0x26
 2275 0e81 54000000 		.4byte	.LVL9
 2276 0e85 980E0000 		.4byte	0xe98
 2277 0e89 27       		.uleb128 0x27
 2278 0e8a 01       		.byte	0x1
 2279 0e8b 50       		.byte	0x50
 2280 0e8c 05       		.byte	0x5
 2281 0e8d 0C       		.byte	0xc
 2282 0e8e 00400040 		.4byte	0x40004000
 2283 0e92 27       		.uleb128 0x27
 2284 0e93 01       		.byte	0x1
 2285 0e94 51       		.byte	0x51
 2286 0e95 01       		.byte	0x1
 2287 0e96 35       		.byte	0x35
 2288 0e97 00       		.byte	0
 2289 0e98 2B       		.uleb128 0x2b
 2290 0e99 62000000 		.4byte	.LVL10
 2291 0e9d 730F0000 		.4byte	0xf73
 2292 0ea1 27       		.uleb128 0x27
 2293 0ea2 01       		.byte	0x1
 2294 0ea3 50       		.byte	0x50
 2295 0ea4 01       		.byte	0x1
 2296 0ea5 30       		.byte	0x30
 2297 0ea6 27       		.uleb128 0x27
 2298 0ea7 01       		.byte	0x1
 2299 0ea8 51       		.byte	0x51
 2300 0ea9 04       		.byte	0x4
 2301 0eaa 08       		.byte	0x8
 2302 0eab E1       		.byte	0xe1
 2303 0eac 39       		.byte	0x39
 2304 0ead 24       		.byte	0x24
 2305 0eae 00       		.byte	0
 2306 0eaf 00       		.byte	0
 2307 0eb0 2A       		.uleb128 0x2a
 2308 0eb1 01       		.byte	0x1
 2309 0eb2 3A000000 		.4byte	.LASF170
 2310 0eb6 01       		.byte	0x1
 2311 0eb7 48       		.byte	0x48
 2312 0eb8 01       		.byte	0x1
 2313 0eb9 00000000 		.4byte	.LFB3
 2314 0ebd 14000000 		.4byte	.LFE3
 2315 0ec1 90000000 		.4byte	.LLST0
 2316 0ec5 01       		.byte	0x1
 2317 0ec6 0A0F0000 		.4byte	0xf0a
 2318 0eca 2C       		.uleb128 0x2c
 2319 0ecb B8060000 		.4byte	.LASF171
ARM GAS  C:\Users\Diogo\AppData\Local\Temp\ccHaX4Zi.s 			page 45


 2320 0ecf 01       		.byte	0x1
 2321 0ed0 48       		.byte	0x48
 2322 0ed1 BA000000 		.4byte	0xba
 2323 0ed5 B0000000 		.4byte	.LLST1
 2324 0ed9 2C       		.uleb128 0x2c
 2325 0eda 8A060000 		.4byte	.LASF172
 2326 0ede 01       		.byte	0x1
 2327 0edf 48       		.byte	0x48
 2328 0ee0 76000000 		.4byte	0x76
 2329 0ee4 DC000000 		.4byte	.LLST2
 2330 0ee8 2B       		.uleb128 0x2b
 2331 0ee9 0C000000 		.4byte	.LVL3
 2332 0eed 170F0000 		.4byte	0xf17
 2333 0ef1 27       		.uleb128 0x27
 2334 0ef2 01       		.byte	0x1
 2335 0ef3 50       		.byte	0x50
 2336 0ef4 05       		.byte	0x5
 2337 0ef5 03       		.byte	0x3
 2338 0ef6 00000000 		.4byte	.LC0
 2339 0efa 27       		.uleb128 0x27
 2340 0efb 01       		.byte	0x1
 2341 0efc 51       		.byte	0x51
 2342 0efd 03       		.byte	0x3
 2343 0efe F3       		.byte	0xf3
 2344 0eff 01       		.uleb128 0x1
 2345 0f00 50       		.byte	0x50
 2346 0f01 27       		.uleb128 0x27
 2347 0f02 01       		.byte	0x1
 2348 0f03 52       		.byte	0x52
 2349 0f04 03       		.byte	0x3
 2350 0f05 F3       		.byte	0xf3
 2351 0f06 01       		.uleb128 0x1
 2352 0f07 51       		.byte	0x51
 2353 0f08 00       		.byte	0
 2354 0f09 00       		.byte	0
 2355 0f0a 2D       		.uleb128 0x2d
 2356 0f0b 01       		.byte	0x1
 2357 0f0c 01       		.byte	0x1
 2358 0f0d D1000000 		.4byte	.LASF173
 2359 0f11 D1000000 		.4byte	.LASF173
 2360 0f15 0C       		.byte	0xc
 2361 0f16 43       		.byte	0x43
 2362 0f17 2D       		.uleb128 0x2d
 2363 0f18 01       		.byte	0x1
 2364 0f19 01       		.byte	0x1
 2365 0f1a F1010000 		.4byte	.LASF174
 2366 0f1e F1010000 		.4byte	.LASF174
 2367 0f22 0D       		.byte	0xd
 2368 0f23 41       		.byte	0x41
 2369 0f24 2D       		.uleb128 0x2d
 2370 0f25 01       		.byte	0x1
 2371 0f26 01       		.byte	0x1
 2372 0f27 38030000 		.4byte	.LASF175
 2373 0f2b 38030000 		.4byte	.LASF175
 2374 0f2f 0E       		.byte	0xe
 2375 0f30 25       		.byte	0x25
 2376 0f31 2D       		.uleb128 0x2d
ARM GAS  C:\Users\Diogo\AppData\Local\Temp\ccHaX4Zi.s 			page 46


 2377 0f32 01       		.byte	0x1
 2378 0f33 01       		.byte	0x1
 2379 0f34 0C000000 		.4byte	.LASF176
 2380 0f38 0C000000 		.4byte	.LASF176
 2381 0f3c 0A       		.byte	0xa
 2382 0f3d 68       		.byte	0x68
 2383 0f3e 2D       		.uleb128 0x2d
 2384 0f3f 01       		.byte	0x1
 2385 0f40 01       		.byte	0x1
 2386 0f41 B3020000 		.4byte	.LASF177
 2387 0f45 B3020000 		.4byte	.LASF177
 2388 0f49 0E       		.byte	0xe
 2389 0f4a 2D       		.byte	0x2d
 2390 0f4b 2D       		.uleb128 0x2d
 2391 0f4c 01       		.byte	0x1
 2392 0f4d 01       		.byte	0x1
 2393 0f4e 7B010000 		.4byte	.LASF178
 2394 0f52 7B010000 		.4byte	.LASF178
 2395 0f56 01       		.byte	0x1
 2396 0f57 9C       		.byte	0x9c
 2397 0f58 2D       		.uleb128 0x2d
 2398 0f59 01       		.byte	0x1
 2399 0f5a 01       		.byte	0x1
 2400 0f5b 0F060000 		.4byte	.LASF179
 2401 0f5f 0F060000 		.4byte	.LASF179
 2402 0f63 0C       		.byte	0xc
 2403 0f64 44       		.byte	0x44
 2404 0f65 2E       		.uleb128 0x2e
 2405 0f66 01       		.byte	0x1
 2406 0f67 01       		.byte	0x1
 2407 0f68 E4000000 		.4byte	.LASF180
 2408 0f6c E4000000 		.4byte	.LASF180
 2409 0f70 0F       		.byte	0xf
 2410 0f71 6802     		.2byte	0x268
 2411 0f73 2D       		.uleb128 0x2d
 2412 0f74 01       		.byte	0x1
 2413 0f75 01       		.byte	0x1
 2414 0f76 A8060000 		.4byte	.LASF181
 2415 0f7a A8060000 		.4byte	.LASF181
 2416 0f7e 0D       		.byte	0xd
 2417 0f7f 3D       		.byte	0x3d
 2418 0f80 00       		.byte	0
 2419              		.section	.debug_abbrev,"",%progbits
 2420              	.Ldebug_abbrev0:
 2421 0000 01       		.uleb128 0x1
 2422 0001 11       		.uleb128 0x11
 2423 0002 01       		.byte	0x1
 2424 0003 25       		.uleb128 0x25
 2425 0004 0E       		.uleb128 0xe
 2426 0005 13       		.uleb128 0x13
 2427 0006 0B       		.uleb128 0xb
 2428 0007 03       		.uleb128 0x3
 2429 0008 0E       		.uleb128 0xe
 2430 0009 1B       		.uleb128 0x1b
 2431 000a 0E       		.uleb128 0xe
 2432 000b 11       		.uleb128 0x11
 2433 000c 01       		.uleb128 0x1
ARM GAS  C:\Users\Diogo\AppData\Local\Temp\ccHaX4Zi.s 			page 47


 2434 000d 12       		.uleb128 0x12
 2435 000e 01       		.uleb128 0x1
 2436 000f 10       		.uleb128 0x10
 2437 0010 06       		.uleb128 0x6
 2438 0011 00       		.byte	0
 2439 0012 00       		.byte	0
 2440 0013 02       		.uleb128 0x2
 2441 0014 24       		.uleb128 0x24
 2442 0015 00       		.byte	0
 2443 0016 0B       		.uleb128 0xb
 2444 0017 0B       		.uleb128 0xb
 2445 0018 3E       		.uleb128 0x3e
 2446 0019 0B       		.uleb128 0xb
 2447 001a 03       		.uleb128 0x3
 2448 001b 0E       		.uleb128 0xe
 2449 001c 00       		.byte	0
 2450 001d 00       		.byte	0
 2451 001e 03       		.uleb128 0x3
 2452 001f 16       		.uleb128 0x16
 2453 0020 00       		.byte	0
 2454 0021 03       		.uleb128 0x3
 2455 0022 0E       		.uleb128 0xe
 2456 0023 3A       		.uleb128 0x3a
 2457 0024 0B       		.uleb128 0xb
 2458 0025 3B       		.uleb128 0x3b
 2459 0026 0B       		.uleb128 0xb
 2460 0027 49       		.uleb128 0x49
 2461 0028 13       		.uleb128 0x13
 2462 0029 00       		.byte	0
 2463 002a 00       		.byte	0
 2464 002b 04       		.uleb128 0x4
 2465 002c 24       		.uleb128 0x24
 2466 002d 00       		.byte	0
 2467 002e 0B       		.uleb128 0xb
 2468 002f 0B       		.uleb128 0xb
 2469 0030 3E       		.uleb128 0x3e
 2470 0031 0B       		.uleb128 0xb
 2471 0032 03       		.uleb128 0x3
 2472 0033 08       		.uleb128 0x8
 2473 0034 00       		.byte	0
 2474 0035 00       		.byte	0
 2475 0036 05       		.uleb128 0x5
 2476 0037 0F       		.uleb128 0xf
 2477 0038 00       		.byte	0
 2478 0039 0B       		.uleb128 0xb
 2479 003a 0B       		.uleb128 0xb
 2480 003b 00       		.byte	0
 2481 003c 00       		.byte	0
 2482 003d 06       		.uleb128 0x6
 2483 003e 13       		.uleb128 0x13
 2484 003f 01       		.byte	0x1
 2485 0040 03       		.uleb128 0x3
 2486 0041 0E       		.uleb128 0xe
 2487 0042 0B       		.uleb128 0xb
 2488 0043 0B       		.uleb128 0xb
 2489 0044 3A       		.uleb128 0x3a
 2490 0045 0B       		.uleb128 0xb
ARM GAS  C:\Users\Diogo\AppData\Local\Temp\ccHaX4Zi.s 			page 48


 2491 0046 3B       		.uleb128 0x3b
 2492 0047 0B       		.uleb128 0xb
 2493 0048 01       		.uleb128 0x1
 2494 0049 13       		.uleb128 0x13
 2495 004a 00       		.byte	0
 2496 004b 00       		.byte	0
 2497 004c 07       		.uleb128 0x7
 2498 004d 0D       		.uleb128 0xd
 2499 004e 00       		.byte	0
 2500 004f 03       		.uleb128 0x3
 2501 0050 0E       		.uleb128 0xe
 2502 0051 3A       		.uleb128 0x3a
 2503 0052 0B       		.uleb128 0xb
 2504 0053 3B       		.uleb128 0x3b
 2505 0054 0B       		.uleb128 0xb
 2506 0055 49       		.uleb128 0x49
 2507 0056 13       		.uleb128 0x13
 2508 0057 38       		.uleb128 0x38
 2509 0058 0A       		.uleb128 0xa
 2510 0059 00       		.byte	0
 2511 005a 00       		.byte	0
 2512 005b 08       		.uleb128 0x8
 2513 005c 0F       		.uleb128 0xf
 2514 005d 00       		.byte	0
 2515 005e 0B       		.uleb128 0xb
 2516 005f 0B       		.uleb128 0xb
 2517 0060 49       		.uleb128 0x49
 2518 0061 13       		.uleb128 0x13
 2519 0062 00       		.byte	0
 2520 0063 00       		.byte	0
 2521 0064 09       		.uleb128 0x9
 2522 0065 26       		.uleb128 0x26
 2523 0066 00       		.byte	0
 2524 0067 49       		.uleb128 0x49
 2525 0068 13       		.uleb128 0x13
 2526 0069 00       		.byte	0
 2527 006a 00       		.byte	0
 2528 006b 0A       		.uleb128 0xa
 2529 006c 0D       		.uleb128 0xd
 2530 006d 00       		.byte	0
 2531 006e 03       		.uleb128 0x3
 2532 006f 08       		.uleb128 0x8
 2533 0070 3A       		.uleb128 0x3a
 2534 0071 0B       		.uleb128 0xb
 2535 0072 3B       		.uleb128 0x3b
 2536 0073 0B       		.uleb128 0xb
 2537 0074 49       		.uleb128 0x49
 2538 0075 13       		.uleb128 0x13
 2539 0076 38       		.uleb128 0x38
 2540 0077 0A       		.uleb128 0xa
 2541 0078 00       		.byte	0
 2542 0079 00       		.byte	0
 2543 007a 0B       		.uleb128 0xb
 2544 007b 13       		.uleb128 0x13
 2545 007c 00       		.byte	0
 2546 007d 03       		.uleb128 0x3
 2547 007e 0E       		.uleb128 0xe
ARM GAS  C:\Users\Diogo\AppData\Local\Temp\ccHaX4Zi.s 			page 49


 2548 007f 3C       		.uleb128 0x3c
 2549 0080 0C       		.uleb128 0xc
 2550 0081 00       		.byte	0
 2551 0082 00       		.byte	0
 2552 0083 0C       		.uleb128 0xc
 2553 0084 16       		.uleb128 0x16
 2554 0085 00       		.byte	0
 2555 0086 03       		.uleb128 0x3
 2556 0087 0E       		.uleb128 0xe
 2557 0088 3A       		.uleb128 0x3a
 2558 0089 0B       		.uleb128 0xb
 2559 008a 3B       		.uleb128 0x3b
 2560 008b 05       		.uleb128 0x5
 2561 008c 49       		.uleb128 0x49
 2562 008d 13       		.uleb128 0x13
 2563 008e 00       		.byte	0
 2564 008f 00       		.byte	0
 2565 0090 0D       		.uleb128 0xd
 2566 0091 17       		.uleb128 0x17
 2567 0092 01       		.byte	0x1
 2568 0093 0B       		.uleb128 0xb
 2569 0094 0B       		.uleb128 0xb
 2570 0095 3A       		.uleb128 0x3a
 2571 0096 0B       		.uleb128 0xb
 2572 0097 3B       		.uleb128 0x3b
 2573 0098 0B       		.uleb128 0xb
 2574 0099 01       		.uleb128 0x1
 2575 009a 13       		.uleb128 0x13
 2576 009b 00       		.byte	0
 2577 009c 00       		.byte	0
 2578 009d 0E       		.uleb128 0xe
 2579 009e 0D       		.uleb128 0xd
 2580 009f 00       		.byte	0
 2581 00a0 03       		.uleb128 0x3
 2582 00a1 0E       		.uleb128 0xe
 2583 00a2 3A       		.uleb128 0x3a
 2584 00a3 0B       		.uleb128 0xb
 2585 00a4 3B       		.uleb128 0x3b
 2586 00a5 0B       		.uleb128 0xb
 2587 00a6 49       		.uleb128 0x49
 2588 00a7 13       		.uleb128 0x13
 2589 00a8 00       		.byte	0
 2590 00a9 00       		.byte	0
 2591 00aa 0F       		.uleb128 0xf
 2592 00ab 01       		.uleb128 0x1
 2593 00ac 01       		.byte	0x1
 2594 00ad 49       		.uleb128 0x49
 2595 00ae 13       		.uleb128 0x13
 2596 00af 01       		.uleb128 0x1
 2597 00b0 13       		.uleb128 0x13
 2598 00b1 00       		.byte	0
 2599 00b2 00       		.byte	0
 2600 00b3 10       		.uleb128 0x10
 2601 00b4 21       		.uleb128 0x21
 2602 00b5 00       		.byte	0
 2603 00b6 49       		.uleb128 0x49
 2604 00b7 13       		.uleb128 0x13
ARM GAS  C:\Users\Diogo\AppData\Local\Temp\ccHaX4Zi.s 			page 50


 2605 00b8 2F       		.uleb128 0x2f
 2606 00b9 0B       		.uleb128 0xb
 2607 00ba 00       		.byte	0
 2608 00bb 00       		.byte	0
 2609 00bc 11       		.uleb128 0x11
 2610 00bd 13       		.uleb128 0x13
 2611 00be 01       		.byte	0x1
 2612 00bf 0B       		.uleb128 0xb
 2613 00c0 0B       		.uleb128 0xb
 2614 00c1 3A       		.uleb128 0x3a
 2615 00c2 0B       		.uleb128 0xb
 2616 00c3 3B       		.uleb128 0x3b
 2617 00c4 0B       		.uleb128 0xb
 2618 00c5 01       		.uleb128 0x1
 2619 00c6 13       		.uleb128 0x13
 2620 00c7 00       		.byte	0
 2621 00c8 00       		.byte	0
 2622 00c9 12       		.uleb128 0x12
 2623 00ca 13       		.uleb128 0x13
 2624 00cb 01       		.byte	0x1
 2625 00cc 03       		.uleb128 0x3
 2626 00cd 0E       		.uleb128 0xe
 2627 00ce 0B       		.uleb128 0xb
 2628 00cf 05       		.uleb128 0x5
 2629 00d0 3A       		.uleb128 0x3a
 2630 00d1 0B       		.uleb128 0xb
 2631 00d2 3B       		.uleb128 0x3b
 2632 00d3 0B       		.uleb128 0xb
 2633 00d4 01       		.uleb128 0x1
 2634 00d5 13       		.uleb128 0x13
 2635 00d6 00       		.byte	0
 2636 00d7 00       		.byte	0
 2637 00d8 13       		.uleb128 0x13
 2638 00d9 15       		.uleb128 0x15
 2639 00da 00       		.byte	0
 2640 00db 27       		.uleb128 0x27
 2641 00dc 0C       		.uleb128 0xc
 2642 00dd 00       		.byte	0
 2643 00de 00       		.byte	0
 2644 00df 14       		.uleb128 0x14
 2645 00e0 15       		.uleb128 0x15
 2646 00e1 01       		.byte	0x1
 2647 00e2 27       		.uleb128 0x27
 2648 00e3 0C       		.uleb128 0xc
 2649 00e4 49       		.uleb128 0x49
 2650 00e5 13       		.uleb128 0x13
 2651 00e6 01       		.uleb128 0x1
 2652 00e7 13       		.uleb128 0x13
 2653 00e8 00       		.byte	0
 2654 00e9 00       		.byte	0
 2655 00ea 15       		.uleb128 0x15
 2656 00eb 05       		.uleb128 0x5
 2657 00ec 00       		.byte	0
 2658 00ed 49       		.uleb128 0x49
 2659 00ee 13       		.uleb128 0x13
 2660 00ef 00       		.byte	0
 2661 00f0 00       		.byte	0
ARM GAS  C:\Users\Diogo\AppData\Local\Temp\ccHaX4Zi.s 			page 51


 2662 00f1 16       		.uleb128 0x16
 2663 00f2 13       		.uleb128 0x13
 2664 00f3 01       		.byte	0x1
 2665 00f4 03       		.uleb128 0x3
 2666 00f5 0E       		.uleb128 0xe
 2667 00f6 0B       		.uleb128 0xb
 2668 00f7 05       		.uleb128 0x5
 2669 00f8 3A       		.uleb128 0x3a
 2670 00f9 0B       		.uleb128 0xb
 2671 00fa 3B       		.uleb128 0x3b
 2672 00fb 05       		.uleb128 0x5
 2673 00fc 01       		.uleb128 0x1
 2674 00fd 13       		.uleb128 0x13
 2675 00fe 00       		.byte	0
 2676 00ff 00       		.byte	0
 2677 0100 17       		.uleb128 0x17
 2678 0101 0D       		.uleb128 0xd
 2679 0102 00       		.byte	0
 2680 0103 03       		.uleb128 0x3
 2681 0104 0E       		.uleb128 0xe
 2682 0105 3A       		.uleb128 0x3a
 2683 0106 0B       		.uleb128 0xb
 2684 0107 3B       		.uleb128 0x3b
 2685 0108 05       		.uleb128 0x5
 2686 0109 49       		.uleb128 0x49
 2687 010a 13       		.uleb128 0x13
 2688 010b 38       		.uleb128 0x38
 2689 010c 0A       		.uleb128 0xa
 2690 010d 00       		.byte	0
 2691 010e 00       		.byte	0
 2692 010f 18       		.uleb128 0x18
 2693 0110 13       		.uleb128 0x13
 2694 0111 01       		.byte	0x1
 2695 0112 03       		.uleb128 0x3
 2696 0113 0E       		.uleb128 0xe
 2697 0114 0B       		.uleb128 0xb
 2698 0115 0B       		.uleb128 0xb
 2699 0116 3A       		.uleb128 0x3a
 2700 0117 0B       		.uleb128 0xb
 2701 0118 3B       		.uleb128 0x3b
 2702 0119 05       		.uleb128 0x5
 2703 011a 01       		.uleb128 0x1
 2704 011b 13       		.uleb128 0x13
 2705 011c 00       		.byte	0
 2706 011d 00       		.byte	0
 2707 011e 19       		.uleb128 0x19
 2708 011f 13       		.uleb128 0x13
 2709 0120 01       		.byte	0x1
 2710 0121 0B       		.uleb128 0xb
 2711 0122 0B       		.uleb128 0xb
 2712 0123 3A       		.uleb128 0x3a
 2713 0124 0B       		.uleb128 0xb
 2714 0125 3B       		.uleb128 0x3b
 2715 0126 05       		.uleb128 0x5
 2716 0127 01       		.uleb128 0x1
 2717 0128 13       		.uleb128 0x13
 2718 0129 00       		.byte	0
ARM GAS  C:\Users\Diogo\AppData\Local\Temp\ccHaX4Zi.s 			page 52


 2719 012a 00       		.byte	0
 2720 012b 1A       		.uleb128 0x1a
 2721 012c 17       		.uleb128 0x17
 2722 012d 01       		.byte	0x1
 2723 012e 0B       		.uleb128 0xb
 2724 012f 0B       		.uleb128 0xb
 2725 0130 3A       		.uleb128 0x3a
 2726 0131 0B       		.uleb128 0xb
 2727 0132 3B       		.uleb128 0x3b
 2728 0133 05       		.uleb128 0x5
 2729 0134 01       		.uleb128 0x1
 2730 0135 13       		.uleb128 0x13
 2731 0136 00       		.byte	0
 2732 0137 00       		.byte	0
 2733 0138 1B       		.uleb128 0x1b
 2734 0139 0D       		.uleb128 0xd
 2735 013a 00       		.byte	0
 2736 013b 03       		.uleb128 0x3
 2737 013c 0E       		.uleb128 0xe
 2738 013d 3A       		.uleb128 0x3a
 2739 013e 0B       		.uleb128 0xb
 2740 013f 3B       		.uleb128 0x3b
 2741 0140 05       		.uleb128 0x5
 2742 0141 49       		.uleb128 0x49
 2743 0142 13       		.uleb128 0x13
 2744 0143 00       		.byte	0
 2745 0144 00       		.byte	0
 2746 0145 1C       		.uleb128 0x1c
 2747 0146 15       		.uleb128 0x15
 2748 0147 01       		.byte	0x1
 2749 0148 27       		.uleb128 0x27
 2750 0149 0C       		.uleb128 0xc
 2751 014a 01       		.uleb128 0x1
 2752 014b 13       		.uleb128 0x13
 2753 014c 00       		.byte	0
 2754 014d 00       		.byte	0
 2755 014e 1D       		.uleb128 0x1d
 2756 014f 34       		.uleb128 0x34
 2757 0150 00       		.byte	0
 2758 0151 03       		.uleb128 0x3
 2759 0152 0E       		.uleb128 0xe
 2760 0153 3A       		.uleb128 0x3a
 2761 0154 0B       		.uleb128 0xb
 2762 0155 3B       		.uleb128 0x3b
 2763 0156 05       		.uleb128 0x5
 2764 0157 49       		.uleb128 0x49
 2765 0158 13       		.uleb128 0x13
 2766 0159 3F       		.uleb128 0x3f
 2767 015a 0C       		.uleb128 0xc
 2768 015b 3C       		.uleb128 0x3c
 2769 015c 0C       		.uleb128 0xc
 2770 015d 00       		.byte	0
 2771 015e 00       		.byte	0
 2772 015f 1E       		.uleb128 0x1e
 2773 0160 34       		.uleb128 0x34
 2774 0161 00       		.byte	0
 2775 0162 03       		.uleb128 0x3
ARM GAS  C:\Users\Diogo\AppData\Local\Temp\ccHaX4Zi.s 			page 53


 2776 0163 0E       		.uleb128 0xe
 2777 0164 3A       		.uleb128 0x3a
 2778 0165 0B       		.uleb128 0xb
 2779 0166 3B       		.uleb128 0x3b
 2780 0167 0B       		.uleb128 0xb
 2781 0168 49       		.uleb128 0x49
 2782 0169 13       		.uleb128 0x13
 2783 016a 3F       		.uleb128 0x3f
 2784 016b 0C       		.uleb128 0xc
 2785 016c 3C       		.uleb128 0x3c
 2786 016d 0C       		.uleb128 0xc
 2787 016e 00       		.byte	0
 2788 016f 00       		.byte	0
 2789 0170 1F       		.uleb128 0x1f
 2790 0171 34       		.uleb128 0x34
 2791 0172 00       		.byte	0
 2792 0173 03       		.uleb128 0x3
 2793 0174 0E       		.uleb128 0xe
 2794 0175 3A       		.uleb128 0x3a
 2795 0176 0B       		.uleb128 0xb
 2796 0177 3B       		.uleb128 0x3b
 2797 0178 0B       		.uleb128 0xb
 2798 0179 49       		.uleb128 0x49
 2799 017a 13       		.uleb128 0x13
 2800 017b 3F       		.uleb128 0x3f
 2801 017c 0C       		.uleb128 0xc
 2802 017d 02       		.uleb128 0x2
 2803 017e 0A       		.uleb128 0xa
 2804 017f 00       		.byte	0
 2805 0180 00       		.byte	0
 2806 0181 20       		.uleb128 0x20
 2807 0182 2E       		.uleb128 0x2e
 2808 0183 01       		.byte	0x1
 2809 0184 3F       		.uleb128 0x3f
 2810 0185 0C       		.uleb128 0xc
 2811 0186 03       		.uleb128 0x3
 2812 0187 0E       		.uleb128 0xe
 2813 0188 3A       		.uleb128 0x3a
 2814 0189 0B       		.uleb128 0xb
 2815 018a 3B       		.uleb128 0x3b
 2816 018b 0B       		.uleb128 0xb
 2817 018c 27       		.uleb128 0x27
 2818 018d 0C       		.uleb128 0xc
 2819 018e 49       		.uleb128 0x49
 2820 018f 13       		.uleb128 0x13
 2821 0190 11       		.uleb128 0x11
 2822 0191 01       		.uleb128 0x1
 2823 0192 12       		.uleb128 0x12
 2824 0193 01       		.uleb128 0x1
 2825 0194 40       		.uleb128 0x40
 2826 0195 06       		.uleb128 0x6
 2827 0196 9742     		.uleb128 0x2117
 2828 0198 0C       		.uleb128 0xc
 2829 0199 01       		.uleb128 0x1
 2830 019a 13       		.uleb128 0x13
 2831 019b 00       		.byte	0
 2832 019c 00       		.byte	0
ARM GAS  C:\Users\Diogo\AppData\Local\Temp\ccHaX4Zi.s 			page 54


 2833 019d 21       		.uleb128 0x21
 2834 019e 34       		.uleb128 0x34
 2835 019f 00       		.byte	0
 2836 01a0 03       		.uleb128 0x3
 2837 01a1 0E       		.uleb128 0xe
 2838 01a2 3A       		.uleb128 0x3a
 2839 01a3 0B       		.uleb128 0xb
 2840 01a4 3B       		.uleb128 0x3b
 2841 01a5 0B       		.uleb128 0xb
 2842 01a6 49       		.uleb128 0x49
 2843 01a7 13       		.uleb128 0x13
 2844 01a8 00       		.byte	0
 2845 01a9 00       		.byte	0
 2846 01aa 22       		.uleb128 0x22
 2847 01ab 34       		.uleb128 0x34
 2848 01ac 00       		.byte	0
 2849 01ad 03       		.uleb128 0x3
 2850 01ae 0E       		.uleb128 0xe
 2851 01af 3A       		.uleb128 0x3a
 2852 01b0 0B       		.uleb128 0xb
 2853 01b1 3B       		.uleb128 0x3b
 2854 01b2 0B       		.uleb128 0xb
 2855 01b3 49       		.uleb128 0x49
 2856 01b4 13       		.uleb128 0x13
 2857 01b5 1C       		.uleb128 0x1c
 2858 01b6 0B       		.uleb128 0xb
 2859 01b7 00       		.byte	0
 2860 01b8 00       		.byte	0
 2861 01b9 23       		.uleb128 0x23
 2862 01ba 34       		.uleb128 0x34
 2863 01bb 00       		.byte	0
 2864 01bc 03       		.uleb128 0x3
 2865 01bd 0E       		.uleb128 0xe
 2866 01be 3A       		.uleb128 0x3a
 2867 01bf 0B       		.uleb128 0xb
 2868 01c0 3B       		.uleb128 0x3b
 2869 01c1 0B       		.uleb128 0xb
 2870 01c2 49       		.uleb128 0x49
 2871 01c3 13       		.uleb128 0x13
 2872 01c4 02       		.uleb128 0x2
 2873 01c5 06       		.uleb128 0x6
 2874 01c6 00       		.byte	0
 2875 01c7 00       		.byte	0
 2876 01c8 24       		.uleb128 0x24
 2877 01c9 2E       		.uleb128 0x2e
 2878 01ca 01       		.byte	0x1
 2879 01cb 3F       		.uleb128 0x3f
 2880 01cc 0C       		.uleb128 0xc
 2881 01cd 03       		.uleb128 0x3
 2882 01ce 0E       		.uleb128 0xe
 2883 01cf 3A       		.uleb128 0x3a
 2884 01d0 0B       		.uleb128 0xb
 2885 01d1 3B       		.uleb128 0x3b
 2886 01d2 0B       		.uleb128 0xb
 2887 01d3 49       		.uleb128 0x49
 2888 01d4 13       		.uleb128 0x13
 2889 01d5 3C       		.uleb128 0x3c
ARM GAS  C:\Users\Diogo\AppData\Local\Temp\ccHaX4Zi.s 			page 55


 2890 01d6 0C       		.uleb128 0xc
 2891 01d7 01       		.uleb128 0x1
 2892 01d8 13       		.uleb128 0x13
 2893 01d9 00       		.byte	0
 2894 01da 00       		.byte	0
 2895 01db 25       		.uleb128 0x25
 2896 01dc 18       		.uleb128 0x18
 2897 01dd 00       		.byte	0
 2898 01de 00       		.byte	0
 2899 01df 00       		.byte	0
 2900 01e0 26       		.uleb128 0x26
 2901 01e1 898201   		.uleb128 0x4109
 2902 01e4 01       		.byte	0x1
 2903 01e5 11       		.uleb128 0x11
 2904 01e6 01       		.uleb128 0x1
 2905 01e7 01       		.uleb128 0x1
 2906 01e8 13       		.uleb128 0x13
 2907 01e9 00       		.byte	0
 2908 01ea 00       		.byte	0
 2909 01eb 27       		.uleb128 0x27
 2910 01ec 8A8201   		.uleb128 0x410a
 2911 01ef 00       		.byte	0
 2912 01f0 02       		.uleb128 0x2
 2913 01f1 0A       		.uleb128 0xa
 2914 01f2 9142     		.uleb128 0x2111
 2915 01f4 0A       		.uleb128 0xa
 2916 01f5 00       		.byte	0
 2917 01f6 00       		.byte	0
 2918 01f7 28       		.uleb128 0x28
 2919 01f8 898201   		.uleb128 0x4109
 2920 01fb 01       		.byte	0x1
 2921 01fc 11       		.uleb128 0x11
 2922 01fd 01       		.uleb128 0x1
 2923 01fe 31       		.uleb128 0x31
 2924 01ff 13       		.uleb128 0x13
 2925 0200 01       		.uleb128 0x1
 2926 0201 13       		.uleb128 0x13
 2927 0202 00       		.byte	0
 2928 0203 00       		.byte	0
 2929 0204 29       		.uleb128 0x29
 2930 0205 898201   		.uleb128 0x4109
 2931 0208 00       		.byte	0
 2932 0209 11       		.uleb128 0x11
 2933 020a 01       		.uleb128 0x1
 2934 020b 31       		.uleb128 0x31
 2935 020c 13       		.uleb128 0x13
 2936 020d 00       		.byte	0
 2937 020e 00       		.byte	0
 2938 020f 2A       		.uleb128 0x2a
 2939 0210 2E       		.uleb128 0x2e
 2940 0211 01       		.byte	0x1
 2941 0212 3F       		.uleb128 0x3f
 2942 0213 0C       		.uleb128 0xc
 2943 0214 03       		.uleb128 0x3
 2944 0215 0E       		.uleb128 0xe
 2945 0216 3A       		.uleb128 0x3a
 2946 0217 0B       		.uleb128 0xb
ARM GAS  C:\Users\Diogo\AppData\Local\Temp\ccHaX4Zi.s 			page 56


 2947 0218 3B       		.uleb128 0x3b
 2948 0219 0B       		.uleb128 0xb
 2949 021a 27       		.uleb128 0x27
 2950 021b 0C       		.uleb128 0xc
 2951 021c 11       		.uleb128 0x11
 2952 021d 01       		.uleb128 0x1
 2953 021e 12       		.uleb128 0x12
 2954 021f 01       		.uleb128 0x1
 2955 0220 40       		.uleb128 0x40
 2956 0221 06       		.uleb128 0x6
 2957 0222 9742     		.uleb128 0x2117
 2958 0224 0C       		.uleb128 0xc
 2959 0225 01       		.uleb128 0x1
 2960 0226 13       		.uleb128 0x13
 2961 0227 00       		.byte	0
 2962 0228 00       		.byte	0
 2963 0229 2B       		.uleb128 0x2b
 2964 022a 898201   		.uleb128 0x4109
 2965 022d 01       		.byte	0x1
 2966 022e 11       		.uleb128 0x11
 2967 022f 01       		.uleb128 0x1
 2968 0230 31       		.uleb128 0x31
 2969 0231 13       		.uleb128 0x13
 2970 0232 00       		.byte	0
 2971 0233 00       		.byte	0
 2972 0234 2C       		.uleb128 0x2c
 2973 0235 05       		.uleb128 0x5
 2974 0236 00       		.byte	0
 2975 0237 03       		.uleb128 0x3
 2976 0238 0E       		.uleb128 0xe
 2977 0239 3A       		.uleb128 0x3a
 2978 023a 0B       		.uleb128 0xb
 2979 023b 3B       		.uleb128 0x3b
 2980 023c 0B       		.uleb128 0xb
 2981 023d 49       		.uleb128 0x49
 2982 023e 13       		.uleb128 0x13
 2983 023f 02       		.uleb128 0x2
 2984 0240 06       		.uleb128 0x6
 2985 0241 00       		.byte	0
 2986 0242 00       		.byte	0
 2987 0243 2D       		.uleb128 0x2d
 2988 0244 2E       		.uleb128 0x2e
 2989 0245 00       		.byte	0
 2990 0246 3F       		.uleb128 0x3f
 2991 0247 0C       		.uleb128 0xc
 2992 0248 3C       		.uleb128 0x3c
 2993 0249 0C       		.uleb128 0xc
 2994 024a 8740     		.uleb128 0x2007
 2995 024c 0E       		.uleb128 0xe
 2996 024d 03       		.uleb128 0x3
 2997 024e 0E       		.uleb128 0xe
 2998 024f 3A       		.uleb128 0x3a
 2999 0250 0B       		.uleb128 0xb
 3000 0251 3B       		.uleb128 0x3b
 3001 0252 0B       		.uleb128 0xb
 3002 0253 00       		.byte	0
 3003 0254 00       		.byte	0
ARM GAS  C:\Users\Diogo\AppData\Local\Temp\ccHaX4Zi.s 			page 57


 3004 0255 2E       		.uleb128 0x2e
 3005 0256 2E       		.uleb128 0x2e
 3006 0257 00       		.byte	0
 3007 0258 3F       		.uleb128 0x3f
 3008 0259 0C       		.uleb128 0xc
 3009 025a 3C       		.uleb128 0x3c
 3010 025b 0C       		.uleb128 0xc
 3011 025c 8740     		.uleb128 0x2007
 3012 025e 0E       		.uleb128 0xe
 3013 025f 03       		.uleb128 0x3
 3014 0260 0E       		.uleb128 0xe
 3015 0261 3A       		.uleb128 0x3a
 3016 0262 0B       		.uleb128 0xb
 3017 0263 3B       		.uleb128 0x3b
 3018 0264 05       		.uleb128 0x5
 3019 0265 00       		.byte	0
 3020 0266 00       		.byte	0
 3021 0267 00       		.byte	0
 3022              		.section	.debug_loc,"",%progbits
 3023              	.Ldebug_loc0:
 3024              	.LLST4:
 3025 0000 74000000 		.4byte	.LFB5-.Ltext0
 3026 0004 78000000 		.4byte	.LCFI2-.Ltext0
 3027 0008 0200     		.2byte	0x2
 3028 000a 7D       		.byte	0x7d
 3029 000b 00       		.sleb128 0
 3030 000c 78000000 		.4byte	.LCFI2-.Ltext0
 3031 0010 58010000 		.4byte	.LFE5-.Ltext0
 3032 0014 0200     		.2byte	0x2
 3033 0016 7D       		.byte	0x7d
 3034 0017 18       		.sleb128 24
 3035 0018 00000000 		.4byte	0
 3036 001c 00000000 		.4byte	0
 3037              	.LLST5:
 3038 0020 78000000 		.4byte	.LVL11-.Ltext0
 3039 0024 D4000000 		.4byte	.LVL25-.Ltext0
 3040 0028 0200     		.2byte	0x2
 3041 002a 30       		.byte	0x30
 3042 002b 9F       		.byte	0x9f
 3043 002c 00000000 		.4byte	0
 3044 0030 00000000 		.4byte	0
 3045              	.LLST6:
 3046 0034 C0000000 		.4byte	.LVL20-.Ltext0
 3047 0038 C2000000 		.4byte	.LVL21-.Ltext0
 3048 003c 0100     		.2byte	0x1
 3049 003e 50       		.byte	0x50
 3050 003f C2000000 		.4byte	.LVL21-.Ltext0
 3051 0043 E8000000 		.4byte	.LVL28-.Ltext0
 3052 0047 0100     		.2byte	0x1
 3053 0049 56       		.byte	0x56
 3054 004a 00000000 		.4byte	0
 3055 004e 00000000 		.4byte	0
 3056              	.LLST7:
 3057 0052 C8000000 		.4byte	.LVL23-.Ltext0
 3058 0056 D0000000 		.4byte	.LVL24-.Ltext0
 3059 005a 0100     		.2byte	0x1
 3060 005c 50       		.byte	0x50
ARM GAS  C:\Users\Diogo\AppData\Local\Temp\ccHaX4Zi.s 			page 58


 3061 005d D0000000 		.4byte	.LVL24-.Ltext0
 3062 0061 E8000000 		.4byte	.LVL28-.Ltext0
 3063 0065 0100     		.2byte	0x1
 3064 0067 55       		.byte	0x55
 3065 0068 00000000 		.4byte	0
 3066 006c 00000000 		.4byte	0
 3067              	.LLST3:
 3068 0070 14000000 		.4byte	.LFB4-.Ltext0
 3069 0074 16000000 		.4byte	.LCFI1-.Ltext0
 3070 0078 0200     		.2byte	0x2
 3071 007a 7D       		.byte	0x7d
 3072 007b 00       		.sleb128 0
 3073 007c 16000000 		.4byte	.LCFI1-.Ltext0
 3074 0080 74000000 		.4byte	.LFE4-.Ltext0
 3075 0084 0200     		.2byte	0x2
 3076 0086 7D       		.byte	0x7d
 3077 0087 08       		.sleb128 8
 3078 0088 00000000 		.4byte	0
 3079 008c 00000000 		.4byte	0
 3080              	.LLST0:
 3081 0090 00000000 		.4byte	.LFB3-.Ltext0
 3082 0094 02000000 		.4byte	.LCFI0-.Ltext0
 3083 0098 0200     		.2byte	0x2
 3084 009a 7D       		.byte	0x7d
 3085 009b 00       		.sleb128 0
 3086 009c 02000000 		.4byte	.LCFI0-.Ltext0
 3087 00a0 14000000 		.4byte	.LFE3-.Ltext0
 3088 00a4 0200     		.2byte	0x2
 3089 00a6 7D       		.byte	0x7d
 3090 00a7 08       		.sleb128 8
 3091 00a8 00000000 		.4byte	0
 3092 00ac 00000000 		.4byte	0
 3093              	.LLST1:
 3094 00b0 00000000 		.4byte	.LVL0-.Ltext0
 3095 00b4 08000000 		.4byte	.LVL2-.Ltext0
 3096 00b8 0100     		.2byte	0x1
 3097 00ba 50       		.byte	0x50
 3098 00bb 08000000 		.4byte	.LVL2-.Ltext0
 3099 00bf 0B000000 		.4byte	.LVL3-1-.Ltext0
 3100 00c3 0100     		.2byte	0x1
 3101 00c5 51       		.byte	0x51
 3102 00c6 0B000000 		.4byte	.LVL3-1-.Ltext0
 3103 00ca 14000000 		.4byte	.LFE3-.Ltext0
 3104 00ce 0400     		.2byte	0x4
 3105 00d0 F3       		.byte	0xf3
 3106 00d1 01       		.uleb128 0x1
 3107 00d2 50       		.byte	0x50
 3108 00d3 9F       		.byte	0x9f
 3109 00d4 00000000 		.4byte	0
 3110 00d8 00000000 		.4byte	0
 3111              	.LLST2:
 3112 00dc 00000000 		.4byte	.LVL0-.Ltext0
 3113 00e0 06000000 		.4byte	.LVL1-.Ltext0
 3114 00e4 0100     		.2byte	0x1
 3115 00e6 51       		.byte	0x51
 3116 00e7 06000000 		.4byte	.LVL1-.Ltext0
 3117 00eb 0B000000 		.4byte	.LVL3-1-.Ltext0
ARM GAS  C:\Users\Diogo\AppData\Local\Temp\ccHaX4Zi.s 			page 59


 3118 00ef 0100     		.2byte	0x1
 3119 00f1 52       		.byte	0x52
 3120 00f2 0B000000 		.4byte	.LVL3-1-.Ltext0
 3121 00f6 14000000 		.4byte	.LFE3-.Ltext0
 3122 00fa 0400     		.2byte	0x4
 3123 00fc F3       		.byte	0xf3
 3124 00fd 01       		.uleb128 0x1
 3125 00fe 51       		.byte	0x51
 3126 00ff 9F       		.byte	0x9f
 3127 0100 00000000 		.4byte	0
 3128 0104 00000000 		.4byte	0
 3129              		.section	.debug_aranges,"",%progbits
 3130 0000 1C000000 		.4byte	0x1c
 3131 0004 0200     		.2byte	0x2
 3132 0006 00000000 		.4byte	.Ldebug_info0
 3133 000a 04       		.byte	0x4
 3134 000b 00       		.byte	0
 3135 000c 0000     		.2byte	0
 3136 000e 0000     		.2byte	0
 3137 0010 00000000 		.4byte	.Ltext0
 3138 0014 58010000 		.4byte	.Letext0-.Ltext0
 3139 0018 00000000 		.4byte	0
 3140 001c 00000000 		.4byte	0
 3141              		.section	.debug_line,"",%progbits
 3142              	.Ldebug_line0:
 3143 0000 D7020000 		.section	.debug_str,"MS",%progbits,1
 3143      02008502 
 3143      00000201 
 3143      FB0E0D00 
 3143      01010101 
 3144              	.LASF76:
 3145 0000 5F64736F 		.ascii	"_dso_handle\000"
 3145      5F68616E 
 3145      646C6500 
 3146              	.LASF176:
 3147 000c 6D616C6C 		.ascii	"malloc\000"
 3147      6F6300
 3148              	.LASF84:
 3149 0013 5F73697A 		.ascii	"_size\000"
 3149      6500
 3150              	.LASF128:
 3151 0019 5F72616E 		.ascii	"_rand48\000"
 3151      64343800 
 3152              	.LASF108:
 3153 0021 5F656D65 		.ascii	"_emergency\000"
 3153      7267656E 
 3153      637900
 3154              	.LASF100:
 3155 002c 5F6D6273 		.ascii	"_mbstate\000"
 3155      74617465 
 3155      00
 3156              	.LASF43:
 3157 0035 70726576 		.ascii	"prev\000"
 3157      00
 3158              	.LASF170:
 3159 003a 5F5F6572 		.ascii	"__error__\000"
 3159      726F725F 
ARM GAS  C:\Users\Diogo\AppData\Local\Temp\ccHaX4Zi.s 			page 60


 3159      5F00
 3160              	.LASF98:
 3161 0044 5F646174 		.ascii	"_data\000"
 3161      6100
 3162              	.LASF148:
 3163 004a 5F776372 		.ascii	"_wcrtomb_state\000"
 3163      746F6D62 
 3163      5F737461 
 3163      746500
 3164              	.LASF149:
 3165 0059 5F776373 		.ascii	"_wcsrtombs_state\000"
 3165      72746F6D 
 3165      62735F73 
 3165      74617465 
 3165      00
 3166              	.LASF7:
 3167 006a 6C6F6E67 		.ascii	"long long unsigned int\000"
 3167      206C6F6E 
 3167      6720756E 
 3167      7369676E 
 3167      65642069 
 3168              	.LASF88:
 3169 0081 5F6C6266 		.ascii	"_lbfsize\000"
 3169      73697A65 
 3169      00
 3170              	.LASF16:
 3171 008a 6D636F6E 		.ascii	"mcontext_t\000"
 3171      74657874 
 3171      5F7400
 3172              	.LASF155:
 3173 0095 5F5F6C6F 		.ascii	"__locale_t\000"
 3173      63616C65 
 3173      5F7400
 3174              	.LASF37:
 3175 00a0 75635F6C 		.ascii	"uc_link\000"
 3175      696E6B00 
 3176              	.LASF168:
 3177 00a8 7461736B 		.ascii	"task_pong\000"
 3177      5F706F6E 
 3177      6700
 3178              	.LASF146:
 3179 00b2 5F6D6272 		.ascii	"_mbrtowc_state\000"
 3179      746F7763 
 3179      5F737461 
 3179      746500
 3180              	.LASF44:
 3181 00c1 6E657874 		.ascii	"next\000"
 3181      00
 3182              	.LASF36:
 3183 00c6 75636F6E 		.ascii	"ucontext_t\000"
 3183      74657874 
 3183      5F7400
 3184              	.LASF173:
 3185 00d1 50696E6F 		.ascii	"PinoutSet\000"
 3185      75745365 
 3185      7400
 3186              	.LASF65:
ARM GAS  C:\Users\Diogo\AppData\Local\Temp\ccHaX4Zi.s 			page 61


 3187 00db 5F5F746D 		.ascii	"__tm_sec\000"
 3187      5F736563 
 3187      00
 3188              	.LASF180:
 3189 00e4 53797343 		.ascii	"SysCtlDelay\000"
 3189      746C4465 
 3189      6C617900 
 3190              	.LASF6:
 3191 00f0 6C6F6E67 		.ascii	"long long int\000"
 3191      206C6F6E 
 3191      6720696E 
 3191      7400
 3192              	.LASF0:
 3193 00fe 7369676E 		.ascii	"signed char\000"
 3193      65642063 
 3193      68617200 
 3194              	.LASF94:
 3195 010a 5F756275 		.ascii	"_ubuf\000"
 3195      6600
 3196              	.LASF83:
 3197 0110 5F626173 		.ascii	"_base\000"
 3197      6500
 3198              	.LASF67:
 3199 0116 5F5F746D 		.ascii	"__tm_hour\000"
 3199      5F686F75 
 3199      7200
 3200              	.LASF123:
 3201 0120 5F5F7366 		.ascii	"__sf\000"
 3201      00
 3202              	.LASF74:
 3203 0125 5F6F6E5F 		.ascii	"_on_exit_args\000"
 3203      65786974 
 3203      5F617267 
 3203      7300
 3204              	.LASF89:
 3205 0133 5F636F6F 		.ascii	"_cookie\000"
 3205      6B696500 
 3206              	.LASF135:
 3207 013b 5F6C6F63 		.ascii	"_localtime_buf\000"
 3207      616C7469 
 3207      6D655F62 
 3207      756600
 3208              	.LASF122:
 3209 014a 5F5F7367 		.ascii	"__sglue\000"
 3209      6C756500 
 3210              	.LASF4:
 3211 0152 6C6F6E67 		.ascii	"long int\000"
 3211      20696E74 
 3211      00
 3212              	.LASF167:
 3213 015b 7461736B 		.ascii	"task_ping\000"
 3213      5F70696E 
 3213      6700
 3214              	.LASF86:
 3215 0165 5F666C61 		.ascii	"_flags\000"
 3215      677300
 3216              	.LASF78:
ARM GAS  C:\Users\Diogo\AppData\Local\Temp\ccHaX4Zi.s 			page 62


 3217 016c 5F69735F 		.ascii	"_is_cxa\000"
 3217      63786100 
 3218              	.LASF104:
 3219 0174 5F737464 		.ascii	"_stdin\000"
 3219      696E00
 3220              	.LASF178:
 3221 017b 73746172 		.ascii	"startSwitcher\000"
 3221      74537769 
 3221      74636865 
 3221      7200
 3222              	.LASF165:
 3223 0189 74657374 		.ascii	"teste\000"
 3223      6500
 3224              	.LASF96:
 3225 018f 5F626C6B 		.ascii	"_blksize\000"
 3225      73697A65 
 3225      00
 3226              	.LASF154:
 3227 0198 5F5F6C6F 		.ascii	"__lock\000"
 3227      636B00
 3228              	.LASF115:
 3229 019f 5F703573 		.ascii	"_p5s\000"
 3229      00
 3230              	.LASF38:
 3231 01a4 75635F73 		.ascii	"uc_stack\000"
 3231      7461636B 
 3231      00
 3232              	.LASF118:
 3233 01ad 5F637674 		.ascii	"_cvtbuf\000"
 3233      62756600 
 3234              	.LASF97:
 3235 01b5 5F6F6666 		.ascii	"_offset\000"
 3235      73657400 
 3236              	.LASF147:
 3237 01bd 5F6D6273 		.ascii	"_mbsrtowcs_state\000"
 3237      72746F77 
 3237      63735F73 
 3237      74617465 
 3237      00
 3238              	.LASF133:
 3239 01ce 5F737472 		.ascii	"_strtok_last\000"
 3239      746F6B5F 
 3239      6C617374 
 3239      00
 3240              	.LASF145:
 3241 01db 5F6D6272 		.ascii	"_mbrlen_state\000"
 3241      6C656E5F 
 3241      73746174 
 3241      6500
 3242              	.LASF75:
 3243 01e9 5F666E61 		.ascii	"_fnargs\000"
 3243      72677300 
 3244              	.LASF174:
 3245 01f1 55415254 		.ascii	"UARTprintf\000"
 3245      7072696E 
 3245      746600
 3246              	.LASF47:
ARM GAS  C:\Users\Diogo\AppData\Local\Temp\ccHaX4Zi.s 			page 63


 3247 01fc 6C6F6E67 		.ascii	"long double\000"
 3247      20646F75 
 3247      626C6500 
 3248              	.LASF81:
 3249 0208 5F666E73 		.ascii	"_fns\000"
 3249      00
 3250              	.LASF9:
 3251 020d 5F5F7569 		.ascii	"__uint32_t\000"
 3251      6E743332 
 3251      5F7400
 3252              	.LASF62:
 3253 0218 5F736967 		.ascii	"_sign\000"
 3253      6E00
 3254              	.LASF57:
 3255 021e 5F666C6F 		.ascii	"_flock_t\000"
 3255      636B5F74 
 3255      00
 3256              	.LASF106:
 3257 0227 5F737464 		.ascii	"_stderr\000"
 3257      65727200 
 3258              	.LASF59:
 3259 022f 5F426967 		.ascii	"_Bigint\000"
 3259      696E7400 
 3260              	.LASF136:
 3261 0237 5F67616D 		.ascii	"_gamma_signgam\000"
 3261      6D615F73 
 3261      69676E67 
 3261      616D00
 3262              	.LASF159:
 3263 0246 436F6E74 		.ascii	"ContextPing\000"
 3263      65787450 
 3263      696E6700 
 3264              	.LASF60:
 3265 0252 5F6E6578 		.ascii	"_next\000"
 3265      7400
 3266              	.LASF90:
 3267 0258 5F726561 		.ascii	"_read\000"
 3267      6400
 3268              	.LASF114:
 3269 025e 5F726573 		.ascii	"_result_k\000"
 3269      756C745F 
 3269      6B00
 3270              	.LASF183:
 3271 0268 68656C6C 		.ascii	"hello.c\000"
 3271      6F2E6300 
 3272              	.LASF64:
 3273 0270 5F5F746D 		.ascii	"__tm\000"
 3273      00
 3274              	.LASF41:
 3275 0275 696E6974 		.ascii	"initialized\000"
 3275      69616C69 
 3275      7A656400 
 3276              	.LASF17:
 3277 0281 72656750 		.ascii	"regPC\000"
 3277      4300
 3278              	.LASF8:
 3279 0287 756E7369 		.ascii	"unsigned int\000"
ARM GAS  C:\Users\Diogo\AppData\Local\Temp\ccHaX4Zi.s 			page 64


 3279      676E6564 
 3279      20696E74 
 3279      00
 3280              	.LASF53:
 3281 0294 5F5F7763 		.ascii	"__wchb\000"
 3281      686200
 3282              	.LASF105:
 3283 029b 5F737464 		.ascii	"_stdout\000"
 3283      6F757400 
 3284              	.LASF12:
 3285 02a3 73735F73 		.ascii	"ss_size\000"
 3285      697A6500 
 3286              	.LASF117:
 3287 02ab 5F637674 		.ascii	"_cvtlen\000"
 3287      6C656E00 
 3288              	.LASF177:
 3289 02b3 7461736B 		.ascii	"task_create\000"
 3289      5F637265 
 3289      61746500 
 3290              	.LASF5:
 3291 02bf 6C6F6E67 		.ascii	"long unsigned int\000"
 3291      20756E73 
 3291      69676E65 
 3291      6420696E 
 3291      7400
 3292              	.LASF87:
 3293 02d1 5F66696C 		.ascii	"_file\000"
 3293      6500
 3294              	.LASF162:
 3295 02d7 675F7569 		.ascii	"g_ui32SysClock\000"
 3295      33325379 
 3295      73436C6F 
 3295      636B00
 3296              	.LASF126:
 3297 02e6 5F6E696F 		.ascii	"_niobs\000"
 3297      627300
 3298              	.LASF3:
 3299 02ed 73686F72 		.ascii	"short unsigned int\000"
 3299      7420756E 
 3299      7369676E 
 3299      65642069 
 3299      6E7400
 3300              	.LASF120:
 3301 0300 5F617465 		.ascii	"_atexit0\000"
 3301      78697430 
 3301      00
 3302              	.LASF143:
 3303 0309 5F736967 		.ascii	"_signal_buf\000"
 3303      6E616C5F 
 3303      62756600 
 3304              	.LASF134:
 3305 0315 5F617363 		.ascii	"_asctime_buf\000"
 3305      74696D65 
 3305      5F627566 
 3305      00
 3306              	.LASF113:
 3307 0322 5F726573 		.ascii	"_result\000"
ARM GAS  C:\Users\Diogo\AppData\Local\Temp\ccHaX4Zi.s 			page 65


 3307      756C7400 
 3308              	.LASF52:
 3309 032a 5F5F7763 		.ascii	"__wch\000"
 3309      6800
 3310              	.LASF48:
 3311 0330 5F4C4F43 		.ascii	"_LOCK_T\000"
 3311      4B5F5400 
 3312              	.LASF175:
 3313 0338 70706F73 		.ascii	"ppos_init\000"
 3313      5F696E69 
 3313      7400
 3314              	.LASF51:
 3315 0342 77696E74 		.ascii	"wint_t\000"
 3315      5F7400
 3316              	.LASF164:
 3317 0349 74657374 		.ascii	"teste001\000"
 3317      65303031 
 3317      00
 3318              	.LASF99:
 3319 0352 5F6C6F63 		.ascii	"_lock\000"
 3319      6B00
 3320              	.LASF101:
 3321 0358 5F666C61 		.ascii	"_flags2\000"
 3321      67733200 
 3322              	.LASF161:
 3323 0360 436F6E74 		.ascii	"ContextMain\000"
 3323      6578744D 
 3323      61696E00 
 3324              	.LASF91:
 3325 036c 5F777269 		.ascii	"_write\000"
 3325      746500
 3326              	.LASF70:
 3327 0373 5F5F746D 		.ascii	"__tm_year\000"
 3327      5F796561 
 3327      7200
 3328              	.LASF182:
 3329 037d 474E5520 		.ascii	"GNU C11 7.3.1 20180622 (release) [ARM/embedded-7-br"
 3329      43313120 
 3329      372E332E 
 3329      31203230 
 3329      31383036 
 3330 03b0 616E6368 		.ascii	"anch revision 261907] -mcpu=cortex-m4 -mthumb -mapc"
 3330      20726576 
 3330      6973696F 
 3330      6E203236 
 3330      31393037 
 3331 03e3 732D6672 		.ascii	"s-frame -mthumb-interwork -gdwarf-2 -O\000"
 3331      616D6520 
 3331      2D6D7468 
 3331      756D622D 
 3331      696E7465 
 3332              	.LASF54:
 3333 040a 5F5F636F 		.ascii	"__count\000"
 3333      756E7400 
 3334              	.LASF158:
 3335 0412 7375626F 		.ascii	"suboptarg\000"
 3335      70746172 
ARM GAS  C:\Users\Diogo\AppData\Local\Temp\ccHaX4Zi.s 			page 66


 3335      6700
 3336              	.LASF33:
 3337 041c 72656752 		.ascii	"regR13\000"
 3337      313300
 3338              	.LASF69:
 3339 0423 5F5F746D 		.ascii	"__tm_mon\000"
 3339      5F6D6F6E 
 3339      00
 3340              	.LASF184:
 3341 042c 443A5C55 		.ascii	"D:\\UTFPR\\SISTEMAS OPERACIONAIS\\so-tiva-pratica\000"
 3341      54465052 
 3341      5C534953 
 3341      54454D41 
 3341      53204F50 
 3342              	.LASF151:
 3343 045b 5F6E6578 		.ascii	"_nextf\000"
 3343      746600
 3344              	.LASF20:
 3345 0462 72656752 		.ascii	"regR0\000"
 3345      3000
 3346              	.LASF21:
 3347 0468 72656752 		.ascii	"regR1\000"
 3347      3100
 3348              	.LASF11:
 3349 046e 73735F73 		.ascii	"ss_sp\000"
 3349      7000
 3350              	.LASF23:
 3351 0474 72656752 		.ascii	"regR3\000"
 3351      3300
 3352              	.LASF24:
 3353 047a 72656752 		.ascii	"regR4\000"
 3353      3400
 3354              	.LASF25:
 3355 0480 72656752 		.ascii	"regR5\000"
 3355      3500
 3356              	.LASF26:
 3357 0486 72656752 		.ascii	"regR6\000"
 3357      3600
 3358              	.LASF27:
 3359 048c 72656752 		.ascii	"regR7\000"
 3359      3700
 3360              	.LASF28:
 3361 0492 72656752 		.ascii	"regR8\000"
 3361      3800
 3362              	.LASF29:
 3363 0498 72656752 		.ascii	"regR9\000"
 3363      3900
 3364              	.LASF111:
 3365 049e 5F5F7364 		.ascii	"__sdidinit\000"
 3365      6964696E 
 3365      697400
 3366              	.LASF49:
 3367 04a9 5F6F6666 		.ascii	"_off_t\000"
 3367      5F7400
 3368              	.LASF19:
 3369 04b0 72656743 		.ascii	"regCPSR\000"
 3369      50535200 
ARM GAS  C:\Users\Diogo\AppData\Local\Temp\ccHaX4Zi.s 			page 67


 3370              	.LASF15:
 3371 04b8 73746163 		.ascii	"stack_t\000"
 3371      6B5F7400 
 3372              	.LASF116:
 3373 04c0 5F667265 		.ascii	"_freelist\000"
 3373      656C6973 
 3373      7400
 3374              	.LASF141:
 3375 04ca 5F776374 		.ascii	"_wctomb_state\000"
 3375      6F6D625F 
 3375      73746174 
 3375      6500
 3376              	.LASF13:
 3377 04d8 73735F66 		.ascii	"ss_flags\000"
 3377      6C616773 
 3377      00
 3378              	.LASF1:
 3379 04e1 756E7369 		.ascii	"unsigned char\000"
 3379      676E6564 
 3379      20636861 
 3379      7200
 3380              	.LASF119:
 3381 04ef 5F6E6577 		.ascii	"_new\000"
 3381      00
 3382              	.LASF150:
 3383 04f4 5F685F65 		.ascii	"_h_errno\000"
 3383      72726E6F 
 3383      00
 3384              	.LASF2:
 3385 04fd 73686F72 		.ascii	"short int\000"
 3385      7420696E 
 3385      7400
 3386              	.LASF72:
 3387 0507 5F5F746D 		.ascii	"__tm_yday\000"
 3387      5F796461 
 3387      7900
 3388              	.LASF82:
 3389 0511 5F5F7362 		.ascii	"__sbuf\000"
 3389      756600
 3390              	.LASF127:
 3391 0518 5F696F62 		.ascii	"_iobs\000"
 3391      7300
 3392              	.LASF124:
 3393 051e 5F5F4649 		.ascii	"__FILE\000"
 3393      4C4500
 3394              	.LASF56:
 3395 0525 5F6D6273 		.ascii	"_mbstate_t\000"
 3395      74617465 
 3395      5F7400
 3396              	.LASF85:
 3397 0530 5F5F7346 		.ascii	"__sFILE\000"
 3397      494C4500 
 3398              	.LASF39:
 3399 0538 75635F6D 		.ascii	"uc_mcontext\000"
 3399      636F6E74 
 3399      65787400 
 3400              	.LASF137:
ARM GAS  C:\Users\Diogo\AppData\Local\Temp\ccHaX4Zi.s 			page 68


 3401 0544 5F72616E 		.ascii	"_rand_next\000"
 3401      645F6E65 
 3401      787400
 3402              	.LASF139:
 3403 054f 5F6D626C 		.ascii	"_mblen_state\000"
 3403      656E5F73 
 3403      74617465 
 3403      00
 3404              	.LASF107:
 3405 055c 5F696E63 		.ascii	"_inc\000"
 3405      00
 3406              	.LASF80:
 3407 0561 5F696E64 		.ascii	"_ind\000"
 3407      00
 3408              	.LASF110:
 3409 0566 5F6C6F63 		.ascii	"_locale\000"
 3409      616C6500 
 3410              	.LASF112:
 3411 056e 5F5F636C 		.ascii	"__cleanup\000"
 3411      65616E75 
 3411      7000
 3412              	.LASF109:
 3413 0578 5F756E73 		.ascii	"_unspecified_locale_info\000"
 3413      70656369 
 3413      66696564 
 3413      5F6C6F63 
 3413      616C655F 
 3414              	.LASF166:
 3415 0591 6D61696E 		.ascii	"maintask\000"
 3415      7461736B 
 3415      00
 3416              	.LASF61:
 3417 059a 5F6D6178 		.ascii	"_maxwds\000"
 3417      77647300 
 3418              	.LASF102:
 3419 05a2 5F726565 		.ascii	"_reent\000"
 3419      6E7400
 3420              	.LASF129:
 3421 05a9 5F736565 		.ascii	"_seed\000"
 3421      6400
 3422              	.LASF30:
 3423 05af 72656752 		.ascii	"regR10\000"
 3423      313000
 3424              	.LASF31:
 3425 05b6 72656752 		.ascii	"regR11\000"
 3425      313100
 3426              	.LASF32:
 3427 05bd 72656752 		.ascii	"regR12\000"
 3427      313200
 3428              	.LASF10:
 3429 05c4 75696E74 		.ascii	"uint32_t\000"
 3429      33325F74 
 3429      00
 3430              	.LASF34:
 3431 05cd 72656752 		.ascii	"regR14\000"
 3431      313400
 3432              	.LASF35:
ARM GAS  C:\Users\Diogo\AppData\Local\Temp\ccHaX4Zi.s 			page 69


 3433 05d4 72656752 		.ascii	"regR15\000"
 3433      313500
 3434              	.LASF18:
 3435 05db 72656753 		.ascii	"regSP\000"
 3435      5000
 3436              	.LASF156:
 3437 05e1 5F696D70 		.ascii	"_impure_ptr\000"
 3437      7572655F 
 3437      70747200 
 3438              	.LASF50:
 3439 05ed 5F66706F 		.ascii	"_fpos_t\000"
 3439      735F7400 
 3440              	.LASF103:
 3441 05f5 5F657272 		.ascii	"_errno\000"
 3441      6E6F00
 3442              	.LASF14:
 3443 05fc 63686172 		.ascii	"char\000"
 3443      00
 3444              	.LASF40:
 3445 0601 66756E63 		.ascii	"func\000"
 3445      00
 3446              	.LASF66:
 3447 0606 5F5F746D 		.ascii	"__tm_min\000"
 3447      5F6D696E 
 3447      00
 3448              	.LASF179:
 3449 060f 4C454457 		.ascii	"LEDWrite\000"
 3449      72697465 
 3449      00
 3450              	.LASF130:
 3451 0618 5F6D756C 		.ascii	"_mult\000"
 3451      7400
 3452              	.LASF42:
 3453 061e 7461736B 		.ascii	"task_t\000"
 3453      5F7400
 3454              	.LASF92:
 3455 0625 5F736565 		.ascii	"_seek\000"
 3455      6B00
 3456              	.LASF55:
 3457 062b 5F5F7661 		.ascii	"__value\000"
 3457      6C756500 
 3458              	.LASF77:
 3459 0633 5F666E74 		.ascii	"_fntypes\000"
 3459      79706573 
 3459      00
 3460              	.LASF45:
 3461 063c 636F6E74 		.ascii	"context\000"
 3461      65787400 
 3462              	.LASF131:
 3463 0644 5F616464 		.ascii	"_add\000"
 3463      00
 3464              	.LASF58:
 3465 0649 5F5F554C 		.ascii	"__ULong\000"
 3465      6F6E6700 
 3466              	.LASF144:
 3467 0651 5F676574 		.ascii	"_getdate_err\000"
 3467      64617465 
ARM GAS  C:\Users\Diogo\AppData\Local\Temp\ccHaX4Zi.s 			page 70


 3467      5F657272 
 3467      00
 3468              	.LASF160:
 3469 065e 436F6E74 		.ascii	"ContextPong\000"
 3469      65787450 
 3469      6F6E6700 
 3470              	.LASF157:
 3471 066a 5F676C6F 		.ascii	"_global_impure_ptr\000"
 3471      62616C5F 
 3471      696D7075 
 3471      72655F70 
 3471      747200
 3472              	.LASF132:
 3473 067d 5F756E75 		.ascii	"_unused_rand\000"
 3473      7365645F 
 3473      72616E64 
 3473      00
 3474              	.LASF172:
 3475 068a 75693332 		.ascii	"ui32Line\000"
 3475      4C696E65 
 3475      00
 3476              	.LASF63:
 3477 0693 5F776473 		.ascii	"_wds\000"
 3477      00
 3478              	.LASF71:
 3479 0698 5F5F746D 		.ascii	"__tm_wday\000"
 3479      5F776461 
 3479      7900
 3480              	.LASF125:
 3481 06a2 5F676C75 		.ascii	"_glue\000"
 3481      6500
 3482              	.LASF181:
 3483 06a8 55415254 		.ascii	"UARTStdioConfig\000"
 3483      53746469 
 3483      6F436F6E 
 3483      66696700 
 3484              	.LASF171:
 3485 06b8 70634669 		.ascii	"pcFilename\000"
 3485      6C656E61 
 3485      6D6500
 3486              	.LASF152:
 3487 06c3 5F6E6D61 		.ascii	"_nmalloc\000"
 3487      6C6C6F63 
 3487      00
 3488              	.LASF142:
 3489 06cc 5F6C3634 		.ascii	"_l64a_buf\000"
 3489      615F6275 
 3489      6600
 3490              	.LASF163:
 3491 06d6 636F6E74 		.ascii	"cont\000"
 3491      00
 3492              	.LASF121:
 3493 06db 5F736967 		.ascii	"_sig_func\000"
 3493      5F66756E 
 3493      6300
 3494              	.LASF79:
 3495 06e5 5F617465 		.ascii	"_atexit\000"
ARM GAS  C:\Users\Diogo\AppData\Local\Temp\ccHaX4Zi.s 			page 71


 3495      78697400 
 3496              	.LASF169:
 3497 06ed 436F6E66 		.ascii	"ConfigureUART\000"
 3497      69677572 
 3497      65554152 
 3497      5400
 3498              	.LASF95:
 3499 06fb 5F6E6275 		.ascii	"_nbuf\000"
 3499      6600
 3500              	.LASF153:
 3501 0701 5F756E75 		.ascii	"_unused\000"
 3501      73656400 
 3502              	.LASF73:
 3503 0709 5F5F746D 		.ascii	"__tm_isdst\000"
 3503      5F697364 
 3503      737400
 3504              	.LASF22:
 3505 0714 72656752 		.ascii	"regR2\000"
 3505      3200
 3506              	.LASF93:
 3507 071a 5F636C6F 		.ascii	"_close\000"
 3507      736500
 3508              	.LASF138:
 3509 0721 5F723438 		.ascii	"_r48\000"
 3509      00
 3510              	.LASF140:
 3511 0726 5F6D6274 		.ascii	"_mbtowc_state\000"
 3511      6F77635F 
 3511      73746174 
 3511      6500
 3512              	.LASF46:
 3513 0734 73746163 		.ascii	"stack\000"
 3513      6B00
 3514              	.LASF185:
 3515 073a 6D61696E 		.ascii	"main\000"
 3515      00
 3516              	.LASF68:
 3517 073f 5F5F746D 		.ascii	"__tm_mday\000"
 3517      5F6D6461 
 3517      7900
 3518              		.ident	"GCC: (GNU Tools for Arm Embedded Processors 7-2018-q2-update) 7.3.1 20180622 (release) [AR
ARM GAS  C:\Users\Diogo\AppData\Local\Temp\ccHaX4Zi.s 			page 72


DEFINED SYMBOLS
                            *ABS*:00000000 hello.c
C:\Users\Diogo\AppData\Local\Temp\ccHaX4Zi.s:15     .text:00000000 $t
C:\Users\Diogo\AppData\Local\Temp\ccHaX4Zi.s:22     .text:00000000 __error__
C:\Users\Diogo\AppData\Local\Temp\ccHaX4Zi.s:48     .text:00000010 $d
C:\Users\Diogo\AppData\Local\Temp\ccHaX4Zi.s:52     .text:00000014 $t
C:\Users\Diogo\AppData\Local\Temp\ccHaX4Zi.s:59     .text:00000014 ConfigureUART
C:\Users\Diogo\AppData\Local\Temp\ccHaX4Zi.s:122    .text:00000064 $d
                            *COM*:00000004 g_ui32SysClock
C:\Users\Diogo\AppData\Local\Temp\ccHaX4Zi.s:129    .text:00000074 $t
C:\Users\Diogo\AppData\Local\Temp\ccHaX4Zi.s:136    .text:00000074 main
C:\Users\Diogo\AppData\Local\Temp\ccHaX4Zi.s:268    .text:0000012c $d
                            *COM*:00000064 ContextMain
                            *COM*:00000064 ContextPong
                            *COM*:00000064 ContextPing
C:\Users\Diogo\AppData\Local\Temp\ccHaX4Zi.s:287    .rodata.str1.4:00000000 $d

UNDEFINED SYMBOLS
UARTprintf
UARTStdioConfig
PinoutSet
ppos_init
malloc
task_create
startSwitcher
LEDWrite
SysCtlDelay
BodyPing
BodyPong
