ARM GAS  C:\Users\Diogo\AppData\Local\Temp\ccI5DqZj.s 			page 1


   1              		.cpu cortex-m4
   2              		.eabi_attribute 20, 1
   3              		.eabi_attribute 21, 1
   4              		.eabi_attribute 23, 3
   5              		.eabi_attribute 24, 1
   6              		.eabi_attribute 25, 1
   7              		.eabi_attribute 26, 1
   8              		.eabi_attribute 30, 1
   9              		.eabi_attribute 34, 1
  10              		.eabi_attribute 18, 4
  11              		.file	"hello.c"
  12              		.text
  13              	.Ltext0:
  14              		.cfi_sections	.debug_frame
  15              		.align	1
  16              		.global	__error__
  17              		.syntax unified
  18              		.thumb
  19              		.thumb_func
  20              		.fpu softvfp
  21              		.type	__error__, %function
  22              	__error__:
  23              	.LFB0:
  24              		.file 1 "hello.c"
   1:hello.c       **** //*****************************************************************************
   2:hello.c       **** //
   3:hello.c       **** // hello.c - Simple hello world example.
   4:hello.c       **** //
   5:hello.c       **** // Copyright (c) 2013-2014 Texas Instruments Incorporated.  All rights reserved.
   6:hello.c       **** // Software License Agreement
   7:hello.c       **** // 
   8:hello.c       **** // Texas Instruments (TI) is supplying this software for use solely and
   9:hello.c       **** // exclusively on TI's microcontroller products. The software is owned by
  10:hello.c       **** // TI and/or its suppliers, and is protected under applicable copyright
  11:hello.c       **** // laws. You may not combine this software with "viral" open-source
  12:hello.c       **** // software in order to form a larger program.
  13:hello.c       **** // 
  14:hello.c       **** // THIS SOFTWARE IS PROVIDED "AS IS" AND WITH ALL FAULTS.
  15:hello.c       **** // NO WARRANTIES, WHETHER EXPRESS, IMPLIED OR STATUTORY, INCLUDING, BUT
  16:hello.c       **** // NOT LIMITED TO, IMPLIED WARRANTIES OF MERCHANTABILITY AND FITNESS FOR
  17:hello.c       **** // A PARTICULAR PURPOSE APPLY TO THIS SOFTWARE. TI SHALL NOT, UNDER ANY
  18:hello.c       **** // CIRCUMSTANCES, BE LIABLE FOR SPECIAL, INCIDENTAL, OR CONSEQUENTIAL
  19:hello.c       **** // DAMAGES, FOR ANY REASON WHATSOEVER.
  20:hello.c       **** // 
  21:hello.c       **** // This is part of revision 2.1.0.12573 of the EK-TM4C1294XL Firmware Package.
  22:hello.c       **** //
  23:hello.c       **** //*****************************************************************************
  24:hello.c       **** 
  25:hello.c       **** #include <stdint.h>
  26:hello.c       **** #include <stdbool.h>
  27:hello.c       **** #include "hw_memmap.h"
  28:hello.c       **** #include "hw_types.h"
  29:hello.c       **** #include "driverlib/gpio.h"
  30:hello.c       **** #include "drivers/pinout.h"
  31:hello.c       **** #include "driverlib/pin_map.h"
  32:hello.c       **** #include "driverlib/rom.h"
  33:hello.c       **** #include "driverlib/rom_map.h"
ARM GAS  C:\Users\Diogo\AppData\Local\Temp\ccI5DqZj.s 			page 2


  34:hello.c       **** #include "driverlib/sysctl.h"
  35:hello.c       **** #include "driverlib/uart.h"
  36:hello.c       **** #include "utils/uartstdio.h"
  37:hello.c       **** 
  38:hello.c       **** #include "debug.h"
  39:hello.c       **** 
  40:hello.c       **** #include <stdlib.h>
  41:hello.c       **** 
  42:hello.c       **** void teste1(void);
  43:hello.c       **** 
  44:hello.c       **** 
  45:hello.c       **** //*****************************************************************************
  46:hello.c       **** //
  47:hello.c       **** //! \addtogroup example_list
  48:hello.c       **** //! <h1>Hello World (hello)</h1>
  49:hello.c       **** //!
  50:hello.c       **** //! A very simple ``hello world'' example.  It simply displays ``Hello World!''
  51:hello.c       **** //! on the UART and is a starting point for more complicated applications.
  52:hello.c       **** //!
  53:hello.c       **** //! Open a terminal with 115,200 8-N-1 to see the output for this demo.
  54:hello.c       **** //
  55:hello.c       **** //*****************************************************************************
  56:hello.c       **** 
  57:hello.c       **** //*****************************************************************************
  58:hello.c       **** //
  59:hello.c       **** // System clock rate in Hz.
  60:hello.c       **** //
  61:hello.c       **** //*****************************************************************************
  62:hello.c       **** uint32_t g_ui32SysClock;
  63:hello.c       **** 
  64:hello.c       **** //*****************************************************************************
  65:hello.c       **** //
  66:hello.c       **** // The error routine that is called if the driver library encounters an error.
  67:hello.c       **** //
  68:hello.c       **** //*****************************************************************************
  69:hello.c       **** #ifdef DEBUG
  70:hello.c       **** void
  71:hello.c       **** __error__(char *pcFilename, uint32_t ui32Line)
  72:hello.c       **** {
  25              		.loc 1 72 0
  26              		.cfi_startproc
  27              		@ args = 0, pretend = 0, frame = 0
  28              		@ frame_needed = 0, uses_anonymous_args = 0
  29              	.LVL0:
  30 0000 08B5     		push	{r3, lr}
  31              	.LCFI0:
  32              		.cfi_def_cfa_offset 8
  33              		.cfi_offset 3, -8
  34              		.cfi_offset 14, -4
  73:hello.c       **** 		 UARTprintf("%s %d\n" ,pcFilename, ui32Line);   
  35              		.loc 1 73 0
  36 0002 0A46     		mov	r2, r1
  37 0004 0146     		mov	r1, r0
  38              	.LVL1:
  39 0006 0248     		ldr	r0, .L2
  40              	.LVL2:
  41 0008 FFF7FEFF 		bl	UARTprintf
ARM GAS  C:\Users\Diogo\AppData\Local\Temp\ccI5DqZj.s 			page 3


  42              	.LVL3:
  74:hello.c       **** }
  43              		.loc 1 74 0
  44 000c 08BD     		pop	{r3, pc}
  45              	.L3:
  46 000e 00BF     		.align	2
  47              	.L2:
  48 0010 00000000 		.word	.LC0
  49              		.cfi_endproc
  50              	.LFE0:
  51              		.size	__error__, .-__error__
  52              		.align	1
  53              		.global	ConfigureUART
  54              		.syntax unified
  55              		.thumb
  56              		.thumb_func
  57              		.fpu softvfp
  58              		.type	ConfigureUART, %function
  59              	ConfigureUART:
  60              	.LFB1:
  75:hello.c       **** #endif
  76:hello.c       **** 
  77:hello.c       **** //*****************************************************************************
  78:hello.c       **** //
  79:hello.c       **** // Configure the UART and its pins.  This must be called before UARTprintf().
  80:hello.c       **** //
  81:hello.c       **** //*****************************************************************************
  82:hello.c       **** void
  83:hello.c       **** ConfigureUART(void)
  84:hello.c       **** {
  61              		.loc 1 84 0
  62              		.cfi_startproc
  63              		@ args = 0, pretend = 0, frame = 0
  64              		@ frame_needed = 0, uses_anonymous_args = 0
  65 0014 10B5     		push	{r4, lr}
  66              	.LCFI1:
  67              		.cfi_def_cfa_offset 8
  68              		.cfi_offset 4, -8
  69              		.cfi_offset 14, -4
  85:hello.c       ****     //
  86:hello.c       ****     // Enable the GPIO Peripheral used by the UART.
  87:hello.c       ****     //
  88:hello.c       ****     ROM_SysCtlPeripheralEnable(SYSCTL_PERIPH_GPIOA);
  70              		.loc 1 88 0
  71 0016 134C     		ldr	r4, .L5
  72 0018 2368     		ldr	r3, [r4]
  73 001a 9B69     		ldr	r3, [r3, #24]
  74 001c 1248     		ldr	r0, .L5+4
  75 001e 9847     		blx	r3
  76              	.LVL4:
  89:hello.c       **** 
  90:hello.c       ****     //
  91:hello.c       ****     // Enable UART0
  92:hello.c       ****     //
  93:hello.c       ****     ROM_SysCtlPeripheralEnable(SYSCTL_PERIPH_UART0);
  77              		.loc 1 93 0
  78 0020 2368     		ldr	r3, [r4]
ARM GAS  C:\Users\Diogo\AppData\Local\Temp\ccI5DqZj.s 			page 4


  79 0022 9B69     		ldr	r3, [r3, #24]
  80 0024 1148     		ldr	r0, .L5+8
  81 0026 9847     		blx	r3
  82              	.LVL5:
  94:hello.c       **** 
  95:hello.c       ****     //
  96:hello.c       ****     // Configure GPIO Pins for UART mode.
  97:hello.c       ****     //
  98:hello.c       ****     ROM_GPIOPinConfigure(GPIO_PA0_U0RX);
  83              		.loc 1 98 0
  84 0028 243C     		subs	r4, r4, #36
  85 002a 2368     		ldr	r3, [r4]
  86 002c 9B6E     		ldr	r3, [r3, #104]
  87 002e 0120     		movs	r0, #1
  88 0030 9847     		blx	r3
  89              	.LVL6:
  99:hello.c       ****     ROM_GPIOPinConfigure(GPIO_PA1_U0TX);
  90              		.loc 1 99 0
  91 0032 2368     		ldr	r3, [r4]
  92 0034 9B6E     		ldr	r3, [r3, #104]
  93 0036 40F20140 		movw	r0, #1025
  94 003a 9847     		blx	r3
  95              	.LVL7:
 100:hello.c       ****     ROM_GPIOPinTypeUART(GPIO_PORTA_BASE, GPIO_PIN_0 | GPIO_PIN_1);
  96              		.loc 1 100 0
  97 003c 2368     		ldr	r3, [r4]
  98 003e 5B6D     		ldr	r3, [r3, #84]
  99 0040 0321     		movs	r1, #3
 100 0042 4FF04020 		mov	r0, #1073758208
 101 0046 9847     		blx	r3
 102              	.LVL8:
 101:hello.c       ****     ROM_GPIOPinTypeUART(GPIO_PORTA_BASE, GPIO_PIN_0 | GPIO_PIN_2);
 103              		.loc 1 101 0
 104 0048 2368     		ldr	r3, [r4]
 105 004a 5B6D     		ldr	r3, [r3, #84]
 106 004c 0521     		movs	r1, #5
 107 004e 4FF04020 		mov	r0, #1073758208
 108 0052 9847     		blx	r3
 109              	.LVL9:
 102:hello.c       **** 
 103:hello.c       ****     //
 104:hello.c       ****     // Initialize the UART for console I/O.
 105:hello.c       ****     //
 106:hello.c       ****     UARTStdioConfig(0, 115200, g_ui32SysClock);
 110              		.loc 1 106 0
 111 0054 064B     		ldr	r3, .L5+12
 112 0056 1A68     		ldr	r2, [r3]
 113 0058 4FF4E131 		mov	r1, #115200
 114 005c 0020     		movs	r0, #0
 115 005e FFF7FEFF 		bl	UARTStdioConfig
 116              	.LVL10:
 107:hello.c       **** }
 117              		.loc 1 107 0
 118 0062 10BD     		pop	{r4, pc}
 119              	.L6:
 120              		.align	2
 121              	.L5:
ARM GAS  C:\Users\Diogo\AppData\Local\Temp\ccI5DqZj.s 			page 5


 122 0064 44000001 		.word	16777284
 123 0068 000800F0 		.word	-268433408
 124 006c 001800F0 		.word	-268429312
 125 0070 00000000 		.word	g_ui32SysClock
 126              		.cfi_endproc
 127              	.LFE1:
 128              		.size	ConfigureUART, .-ConfigureUART
 129              		.align	1
 130              		.global	main
 131              		.syntax unified
 132              		.thumb
 133              		.thumb_func
 134              		.fpu softvfp
 135              		.type	main, %function
 136              	main:
 137              	.LFB2:
 108:hello.c       **** 
 109:hello.c       **** //*****************************************************************************
 110:hello.c       **** //
 111:hello.c       **** // Print "Hello World!" to the UART on the Intelligent UART Module.
 112:hello.c       **** //
 113:hello.c       **** //*****************************************************************************
 114:hello.c       **** //-D DEBUG -D gcc
 115:hello.c       **** int main(void)
 116:hello.c       **** {
 138              		.loc 1 116 0
 139              		.cfi_startproc
 140              		@ args = 0, pretend = 0, frame = 16
 141              		@ frame_needed = 0, uses_anonymous_args = 0
 142 0074 2DE9F041 		push	{r4, r5, r6, r7, r8, lr}
 143              	.LCFI2:
 144              		.cfi_def_cfa_offset 24
 145              		.cfi_offset 4, -24
 146              		.cfi_offset 5, -20
 147              		.cfi_offset 6, -16
 148              		.cfi_offset 7, -12
 149              		.cfi_offset 8, -8
 150              		.cfi_offset 14, -4
 151 0078 84B0     		sub	sp, sp, #16
 152              	.LCFI3:
 153              		.cfi_def_cfa_offset 40
 154              	.LVL11:
 117:hello.c       ****     char teste[10];//
 118:hello.c       **** 		uint32_t cont;
 119:hello.c       **** 		cont = 0;
 120:hello.c       ****     // Run from the PLL at 120 MHz.
 121:hello.c       ****     //
 122:hello.c       ****     g_ui32SysClock = MAP_SysCtlClockFreqSet((SYSCTL_XTAL_25MHZ |
 155              		.loc 1 122 0
 156 007a 264B     		ldr	r3, .L9
 157 007c 1B68     		ldr	r3, [r3]
 158 007e D3F8C030 		ldr	r3, [r3, #192]
 159 0082 2549     		ldr	r1, .L9+4
 160 0084 2548     		ldr	r0, .L9+8
 161 0086 9847     		blx	r3
 162              	.LVL12:
 163 0088 254B     		ldr	r3, .L9+12
ARM GAS  C:\Users\Diogo\AppData\Local\Temp\ccI5DqZj.s 			page 6


 164 008a 1860     		str	r0, [r3]
 123:hello.c       ****                 SYSCTL_OSC_MAIN | SYSCTL_USE_PLL |
 124:hello.c       ****                 SYSCTL_CFG_VCO_480), 120000000);
 125:hello.c       **** 
 126:hello.c       ****     //
 127:hello.c       ****     // Configure the device pins.
 128:hello.c       ****     //
 129:hello.c       ****     PinoutSet(false, false);
 165              		.loc 1 129 0
 166 008c 0021     		movs	r1, #0
 167 008e 0846     		mov	r0, r1
 168 0090 FFF7FEFF 		bl	PinoutSet
 169              	.LVL13:
 130:hello.c       **** 
 131:hello.c       ****     //
 132:hello.c       ****     // Enable the GPIO pins for the LED D1 (PN1).
 133:hello.c       ****     //
 134:hello.c       ****     ROM_GPIOPinTypeGPIOOutput(GPIO_PORTN_BASE, GPIO_PIN_1);
 170              		.loc 1 134 0
 171 0094 234C     		ldr	r4, .L9+16
 172 0096 244D     		ldr	r5, .L9+20
 173 0098 2B68     		ldr	r3, [r5]
 174 009a DB6B     		ldr	r3, [r3, #60]
 175 009c 0221     		movs	r1, #2
 176 009e 2046     		mov	r0, r4
 177 00a0 9847     		blx	r3
 178              	.LVL14:
 135:hello.c       ****     ROM_GPIOPinTypeGPIOOutput(GPIO_PORTN_BASE, GPIO_PIN_2);
 179              		.loc 1 135 0
 180 00a2 2B68     		ldr	r3, [r5]
 181 00a4 DB6B     		ldr	r3, [r3, #60]
 182 00a6 0421     		movs	r1, #4
 183 00a8 2046     		mov	r0, r4
 184 00aa 9847     		blx	r3
 185              	.LVL15:
 136:hello.c       **** 
 137:hello.c       ****     //
 138:hello.c       ****     // Initialize the UART.
 139:hello.c       ****     //
 140:hello.c       ****     ConfigureUART();
 186              		.loc 1 140 0
 187 00ac FFF7FEFF 		bl	ConfigureUART
 188              	.LVL16:
 141:hello.c       **** 
 142:hello.c       ****     //
 143:hello.c       ****     // Hello!
 144:hello.c       ****     //
 145:hello.c       ****     UARTprintf("Hello, world  TIVA CCCC !\n");
 189              		.loc 1 145 0
 190 00b0 1E48     		ldr	r0, .L9+24
 191 00b2 FFF7FEFF 		bl	UARTprintf
 192              	.LVL17:
 146:hello.c       ****     //UARTgets(char *pcBuf, uint32_t ui32Len)teste = getchar();//
 147:hello.c       ****     teste1();
 193              		.loc 1 147 0
 194 00b6 FFF7FEFF 		bl	teste1
 195              	.LVL18:
ARM GAS  C:\Users\Diogo\AppData\Local\Temp\ccI5DqZj.s 			page 7


 148:hello.c       **** 		UARTgets(teste,  cont);//teste = getchar();//
 196              		.loc 1 148 0
 197 00ba 0021     		movs	r1, #0
 198 00bc 01A8     		add	r0, sp, #4
 199 00be FFF7FEFF 		bl	UARTgets
 200              	.LVL19:
 149:hello.c       **** 
 150:hello.c       **** 		//ASSERT(teste[0] == '0');
 151:hello.c       **** 		ASSERT(0);
 201              		.loc 1 151 0
 202 00c2 9721     		movs	r1, #151
 203 00c4 1A48     		ldr	r0, .L9+28
 204 00c6 FFF7FEFF 		bl	__error__
 205              	.LVL20:
 152:hello.c       **** //    UARTprintf("teste = %c\n", teste[0]);
 153:hello.c       **** // UARTprintf("%s %d\n" ,__FILE__, __LINE__);   
 154:hello.c       **** 	 // We are finished.  Hang around flashing D1.
 155:hello.c       ****     //
 156:hello.c       **** 		//exit(0);
 157:hello.c       ****     while(1)
 158:hello.c       ****     {
 159:hello.c       ****         //
 160:hello.c       ****         // Turn on D1.
 161:hello.c       ****         //
 162:hello.c       ****         LEDWrite(CLP_D1, 1);
 206              		.loc 1 162 0
 207 00ca 0124     		movs	r4, #1
 163:hello.c       ****         LEDWrite(CLP_D2, 0);
 208              		.loc 1 163 0
 209 00cc 0027     		movs	r7, #0
 210 00ce 0226     		movs	r6, #2
 211              	.L8:
 162:hello.c       ****         LEDWrite(CLP_D2, 0);
 212              		.loc 1 162 0 discriminator 1
 213 00d0 2146     		mov	r1, r4
 214 00d2 2046     		mov	r0, r4
 215 00d4 FFF7FEFF 		bl	LEDWrite
 216              	.LVL21:
 217              		.loc 1 163 0 discriminator 1
 218 00d8 3946     		mov	r1, r7
 219 00da 3046     		mov	r0, r6
 220 00dc FFF7FEFF 		bl	LEDWrite
 221              	.LVL22:
 164:hello.c       **** 
 165:hello.c       ****         //
 166:hello.c       ****         // Delay for a bit.
 167:hello.c       ****         //
 168:hello.c       ****         SysCtlDelay(g_ui32SysClock / 10 / 3);
 222              		.loc 1 168 0 discriminator 1
 223 00e0 DFF83C80 		ldr	r8, .L9+12
 224 00e4 D8F80000 		ldr	r0, [r8]
 225 00e8 124D     		ldr	r5, .L9+32
 226 00ea A5FB0030 		umull	r3, r0, r5, r0
 227 00ee 0009     		lsrs	r0, r0, #4
 228 00f0 FFF7FEFF 		bl	SysCtlDelay
 229              	.LVL23:
 169:hello.c       **** 
ARM GAS  C:\Users\Diogo\AppData\Local\Temp\ccI5DqZj.s 			page 8


 170:hello.c       ****         //
 171:hello.c       ****         // Turn off D1.
 172:hello.c       ****         //
 173:hello.c       ****         LEDWrite(CLP_D1, 0);
 230              		.loc 1 173 0 discriminator 1
 231 00f4 3946     		mov	r1, r7
 232 00f6 2046     		mov	r0, r4
 233 00f8 FFF7FEFF 		bl	LEDWrite
 234              	.LVL24:
 174:hello.c       ****         LEDWrite(CLP_D2, 1);
 235              		.loc 1 174 0 discriminator 1
 236 00fc 2146     		mov	r1, r4
 237 00fe 3046     		mov	r0, r6
 238 0100 FFF7FEFF 		bl	LEDWrite
 239              	.LVL25:
 175:hello.c       ****         //
 176:hello.c       ****         // Delay for a bit.
 177:hello.c       ****         //
 178:hello.c       ****         SysCtlDelay(g_ui32SysClock / 10 / 3);
 240              		.loc 1 178 0 discriminator 1
 241 0104 D8F80000 		ldr	r0, [r8]
 242 0108 A5FB0030 		umull	r3, r0, r5, r0
 243 010c 0009     		lsrs	r0, r0, #4
 244 010e FFF7FEFF 		bl	SysCtlDelay
 245              	.LVL26:
 246 0112 DDE7     		b	.L8
 247              	.L10:
 248              		.align	2
 249              	.L9:
 250 0114 44000001 		.word	16777284
 251 0118 000E2707 		.word	120000000
 252 011c 800600F1 		.word	-251656576
 253 0120 00000000 		.word	g_ui32SysClock
 254 0124 00400640 		.word	1074151424
 255 0128 20000001 		.word	16777248
 256 012c 08000000 		.word	.LC1
 257 0130 24000000 		.word	.LC2
 258 0134 89888888 		.word	-2004318071
 259              		.cfi_endproc
 260              	.LFE2:
 261              		.size	main, .-main
 262              		.comm	g_ui32SysClock,4,4
 263              		.section	.rodata.str1.4,"aMS",%progbits,1
 264              		.align	2
 265              	.LC0:
 266 0000 25732025 		.ascii	"%s %d\012\000"
 266      640A00
 267 0007 00       		.space	1
 268              	.LC1:
 269 0008 48656C6C 		.ascii	"Hello, world  TIVA CCCC !\012\000"
 269      6F2C2077 
 269      6F726C64 
 269      20205449 
 269      56412043 
 270 0023 00       		.space	1
 271              	.LC2:
 272 0024 68656C6C 		.ascii	"hello.c\000"
ARM GAS  C:\Users\Diogo\AppData\Local\Temp\ccI5DqZj.s 			page 9


 272      6F2E6300 
 273              		.text
 274              	.Letext0:
 275              		.file 2 "c:\\program files (x86)\\gnu tools arm embedded\\7 2018-q2-update\\arm-none-eabi\\include
 276              		.file 3 "c:\\program files (x86)\\gnu tools arm embedded\\7 2018-q2-update\\arm-none-eabi\\include
 277              		.file 4 "c:\\program files (x86)\\gnu tools arm embedded\\7 2018-q2-update\\arm-none-eabi\\include
 278              		.file 5 "c:\\program files (x86)\\gnu tools arm embedded\\7 2018-q2-update\\arm-none-eabi\\include
 279              		.file 6 "c:\\program files (x86)\\gnu tools arm embedded\\7 2018-q2-update\\lib\\gcc\\arm-none-eab
 280              		.file 7 "c:\\program files (x86)\\gnu tools arm embedded\\7 2018-q2-update\\arm-none-eabi\\include
 281              		.file 8 "c:\\program files (x86)\\gnu tools arm embedded\\7 2018-q2-update\\arm-none-eabi\\include
 282              		.file 9 "drivers/pinout.h"
 283              		.file 10 "./inc/utils/uartstdio.h"
 284              		.file 11 "./inc/driverlib/sysctl.h"