ARM GAS  C:\Users\Diogo\AppData\Local\Temp\ccPgOiI9.s 			page 1


   1              		.cpu cortex-m4
   2              		.eabi_attribute 20, 1
   3              		.eabi_attribute 21, 1
   4              		.eabi_attribute 23, 3
   5              		.eabi_attribute 24, 1
   6              		.eabi_attribute 25, 1
   7              		.eabi_attribute 26, 1
   8              		.eabi_attribute 30, 1
   9              		.eabi_attribute 34, 1
  10              		.eabi_attribute 18, 4
  11              		.file	"pinout.c"
  12              		.text
  13              	.Ltext0:
  14              		.cfi_sections	.debug_frame
  15              		.align	1
  16              		.global	PinoutSet
  17              		.syntax unified
  18              		.thumb
  19              		.thumb_func
  20              		.fpu softvfp
  21              		.type	PinoutSet, %function
  22              	PinoutSet:
  23              	.LFB0:
  24              		.file 1 "pinout.c"
   1:pinout.c      **** //*****************************************************************************
   2:pinout.c      **** //
   3:pinout.c      **** // pinout.c - Function to configure the device pins on the EK-TM4C1294XL.
   4:pinout.c      **** //
   5:pinout.c      **** // Copyright (c) 2013-2014 Texas Instruments Incorporated.  All rights reserved.
   6:pinout.c      **** // Software License Agreement
   7:pinout.c      **** // 
   8:pinout.c      **** // Texas Instruments (TI) is supplying this software for use solely and
   9:pinout.c      **** // exclusively on TI's microcontroller products. The software is owned by
  10:pinout.c      **** // TI and/or its suppliers, and is protected under applicable copyright
  11:pinout.c      **** // laws. You may not combine this software with "viral" open-source
  12:pinout.c      **** // software in order to form a larger program.
  13:pinout.c      **** // 
  14:pinout.c      **** // THIS SOFTWARE IS PROVIDED "AS IS" AND WITH ALL FAULTS.
  15:pinout.c      **** // NO WARRANTIES, WHETHER EXPRESS, IMPLIED OR STATUTORY, INCLUDING, BUT
  16:pinout.c      **** // NOT LIMITED TO, IMPLIED WARRANTIES OF MERCHANTABILITY AND FITNESS FOR
  17:pinout.c      **** // A PARTICULAR PURPOSE APPLY TO THIS SOFTWARE. TI SHALL NOT, UNDER ANY
  18:pinout.c      **** // CIRCUMSTANCES, BE LIABLE FOR SPECIAL, INCIDENTAL, OR CONSEQUENTIAL
  19:pinout.c      **** // DAMAGES, FOR ANY REASON WHATSOEVER.
  20:pinout.c      **** // 
  21:pinout.c      **** // This is part of revision 2.1.0.12573 of the EK-TM4C1294XL Firmware Package.
  22:pinout.c      **** //
  23:pinout.c      **** //*****************************************************************************
  24:pinout.c      **** 
  25:pinout.c      **** #include <stdbool.h>
  26:pinout.c      **** #include <stdint.h>
  27:pinout.c      **** #include "hw_gpio.h"
  28:pinout.c      **** #include "hw_memmap.h"
  29:pinout.c      **** #include "hw_types.h"
  30:pinout.c      **** #include "driverlib\gpio.h"
  31:pinout.c      **** #include "driverlib\pin_map.h"
  32:pinout.c      **** #include "driverlib\rom.h"
  33:pinout.c      **** #include "driverlib\rom_map.h"
ARM GAS  C:\Users\Diogo\AppData\Local\Temp\ccPgOiI9.s 			page 2


  34:pinout.c      **** #include "driverlib\sysctl.h"
  35:pinout.c      **** #include "drivers\pinout.h"
  36:pinout.c      **** 
  37:pinout.c      **** //*****************************************************************************
  38:pinout.c      **** //
  39:pinout.c      **** //! \addtogroup pinout_api
  40:pinout.c      **** //! @{
  41:pinout.c      **** //
  42:pinout.c      **** //*****************************************************************************
  43:pinout.c      **** 
  44:pinout.c      **** //*****************************************************************************
  45:pinout.c      **** //
  46:pinout.c      **** //! Configures the device pins for the standard usages on the EK-TM4C1294XL.
  47:pinout.c      **** //!
  48:pinout.c      **** //! \param bEthernet is a boolean used to determine function of Ethernet pins.
  49:pinout.c      **** //! If true Ethernet pins are  configured as Ethernet LEDs.  If false GPIO are
  50:pinout.c      **** //! available for application use.
  51:pinout.c      **** //! \param bUSB is a boolean used to determine function of USB pins. If true USB
  52:pinout.c      **** //! pins are configured for USB use.  If false then USB pins are available for
  53:pinout.c      **** //! application use as GPIO.
  54:pinout.c      **** //!
  55:pinout.c      **** //! This function enables the GPIO modules and configures the device pins for
  56:pinout.c      **** //! the default, standard usages on the EK-TM4C1294XL.  Applications that
  57:pinout.c      **** //! require alternate configurations of the device pins can either not call
  58:pinout.c      **** //! this function and take full responsibility for configuring all the device
  59:pinout.c      **** //! pins, or can reconfigure the required device pins after calling this
  60:pinout.c      **** //! function.
  61:pinout.c      **** //!
  62:pinout.c      **** //! \return None.
  63:pinout.c      **** //
  64:pinout.c      **** //*****************************************************************************
  65:pinout.c      **** void
  66:pinout.c      **** PinoutSet(bool bEthernet, bool bUSB)
  67:pinout.c      **** {
  25              		.loc 1 67 0
  26              		.cfi_startproc
  27              		@ args = 0, pretend = 0, frame = 0
  28              		@ frame_needed = 0, uses_anonymous_args = 0
  29              	.LVL0:
  30 0000 70B5     		push	{r4, r5, r6, lr}
  31              	.LCFI0:
  32              		.cfi_def_cfa_offset 16
  33              		.cfi_offset 4, -16
  34              		.cfi_offset 5, -12
  35              		.cfi_offset 6, -8
  36              		.cfi_offset 14, -4
  37 0002 0546     		mov	r5, r0
  38 0004 0E46     		mov	r6, r1
  68:pinout.c      ****     //
  69:pinout.c      ****     // Enable all the GPIO peripherals.
  70:pinout.c      ****     //
  71:pinout.c      ****     ROM_SysCtlPeripheralEnable(SYSCTL_PERIPH_GPIOA);
  39              		.loc 1 71 0
  40 0006 604C     		ldr	r4, .L7
  41 0008 2368     		ldr	r3, [r4]
  42 000a 9B69     		ldr	r3, [r3, #24]
  43 000c 5F48     		ldr	r0, .L7+4
ARM GAS  C:\Users\Diogo\AppData\Local\Temp\ccPgOiI9.s 			page 3


  44              	.LVL1:
  45 000e 9847     		blx	r3
  46              	.LVL2:
  72:pinout.c      ****     ROM_SysCtlPeripheralEnable(SYSCTL_PERIPH_GPIOB);
  47              		.loc 1 72 0
  48 0010 2368     		ldr	r3, [r4]
  49 0012 9B69     		ldr	r3, [r3, #24]
  50 0014 5E48     		ldr	r0, .L7+8
  51 0016 9847     		blx	r3
  52              	.LVL3:
  73:pinout.c      ****     ROM_SysCtlPeripheralEnable(SYSCTL_PERIPH_GPIOC);
  53              		.loc 1 73 0
  54 0018 2368     		ldr	r3, [r4]
  55 001a 9B69     		ldr	r3, [r3, #24]
  56 001c 5D48     		ldr	r0, .L7+12
  57 001e 9847     		blx	r3
  58              	.LVL4:
  74:pinout.c      ****     ROM_SysCtlPeripheralEnable(SYSCTL_PERIPH_GPIOD);
  59              		.loc 1 74 0
  60 0020 2368     		ldr	r3, [r4]
  61 0022 9B69     		ldr	r3, [r3, #24]
  62 0024 5C48     		ldr	r0, .L7+16
  63 0026 9847     		blx	r3
  64              	.LVL5:
  75:pinout.c      ****     ROM_SysCtlPeripheralEnable(SYSCTL_PERIPH_GPIOE);
  65              		.loc 1 75 0
  66 0028 2368     		ldr	r3, [r4]
  67 002a 9B69     		ldr	r3, [r3, #24]
  68 002c 5B48     		ldr	r0, .L7+20
  69 002e 9847     		blx	r3
  70              	.LVL6:
  76:pinout.c      ****     ROM_SysCtlPeripheralEnable(SYSCTL_PERIPH_GPIOF);
  71              		.loc 1 76 0
  72 0030 2368     		ldr	r3, [r4]
  73 0032 9B69     		ldr	r3, [r3, #24]
  74 0034 5A48     		ldr	r0, .L7+24
  75 0036 9847     		blx	r3
  76              	.LVL7:
  77:pinout.c      ****     ROM_SysCtlPeripheralEnable(SYSCTL_PERIPH_GPIOG);
  77              		.loc 1 77 0
  78 0038 2368     		ldr	r3, [r4]
  79 003a 9B69     		ldr	r3, [r3, #24]
  80 003c 5948     		ldr	r0, .L7+28
  81 003e 9847     		blx	r3
  82              	.LVL8:
  78:pinout.c      ****     ROM_SysCtlPeripheralEnable(SYSCTL_PERIPH_GPIOH);
  83              		.loc 1 78 0
  84 0040 2368     		ldr	r3, [r4]
  85 0042 9B69     		ldr	r3, [r3, #24]
  86 0044 5848     		ldr	r0, .L7+32
  87 0046 9847     		blx	r3
  88              	.LVL9:
  79:pinout.c      ****     ROM_SysCtlPeripheralEnable(SYSCTL_PERIPH_GPIOJ);
  89              		.loc 1 79 0
  90 0048 2368     		ldr	r3, [r4]
  91 004a 9B69     		ldr	r3, [r3, #24]
  92 004c 5748     		ldr	r0, .L7+36
ARM GAS  C:\Users\Diogo\AppData\Local\Temp\ccPgOiI9.s 			page 4


  93 004e 9847     		blx	r3
  94              	.LVL10:
  80:pinout.c      ****     ROM_SysCtlPeripheralEnable(SYSCTL_PERIPH_GPIOK);
  95              		.loc 1 80 0
  96 0050 2368     		ldr	r3, [r4]
  97 0052 9B69     		ldr	r3, [r3, #24]
  98 0054 5648     		ldr	r0, .L7+40
  99 0056 9847     		blx	r3
 100              	.LVL11:
  81:pinout.c      ****     ROM_SysCtlPeripheralEnable(SYSCTL_PERIPH_GPIOL);
 101              		.loc 1 81 0
 102 0058 2368     		ldr	r3, [r4]
 103 005a 9B69     		ldr	r3, [r3, #24]
 104 005c 5548     		ldr	r0, .L7+44
 105 005e 9847     		blx	r3
 106              	.LVL12:
  82:pinout.c      ****     ROM_SysCtlPeripheralEnable(SYSCTL_PERIPH_GPIOM);
 107              		.loc 1 82 0
 108 0060 2368     		ldr	r3, [r4]
 109 0062 9B69     		ldr	r3, [r3, #24]
 110 0064 5448     		ldr	r0, .L7+48
 111 0066 9847     		blx	r3
 112              	.LVL13:
  83:pinout.c      ****     ROM_SysCtlPeripheralEnable(SYSCTL_PERIPH_GPION);
 113              		.loc 1 83 0
 114 0068 2368     		ldr	r3, [r4]
 115 006a 9B69     		ldr	r3, [r3, #24]
 116 006c 5348     		ldr	r0, .L7+52
 117 006e 9847     		blx	r3
 118              	.LVL14:
  84:pinout.c      ****     ROM_SysCtlPeripheralEnable(SYSCTL_PERIPH_GPIOP);
 119              		.loc 1 84 0
 120 0070 2368     		ldr	r3, [r4]
 121 0072 9B69     		ldr	r3, [r3, #24]
 122 0074 5248     		ldr	r0, .L7+56
 123 0076 9847     		blx	r3
 124              	.LVL15:
  85:pinout.c      ****     ROM_SysCtlPeripheralEnable(SYSCTL_PERIPH_GPIOQ);
 125              		.loc 1 85 0
 126 0078 2368     		ldr	r3, [r4]
 127 007a 9B69     		ldr	r3, [r3, #24]
 128 007c 5148     		ldr	r0, .L7+60
 129 007e 9847     		blx	r3
 130              	.LVL16:
  86:pinout.c      **** 
  87:pinout.c      ****     //
  88:pinout.c      ****     // PA0-1 are used for UART0.
  89:pinout.c      ****     //
  90:pinout.c      ****     ROM_GPIOPinConfigure(GPIO_PA0_U0RX);
 131              		.loc 1 90 0
 132 0080 243C     		subs	r4, r4, #36
 133 0082 2368     		ldr	r3, [r4]
 134 0084 9B6E     		ldr	r3, [r3, #104]
 135 0086 0120     		movs	r0, #1
 136 0088 9847     		blx	r3
 137              	.LVL17:
  91:pinout.c      ****     ROM_GPIOPinConfigure(GPIO_PA1_U0TX);
ARM GAS  C:\Users\Diogo\AppData\Local\Temp\ccPgOiI9.s 			page 5


 138              		.loc 1 91 0
 139 008a 2368     		ldr	r3, [r4]
 140 008c 9B6E     		ldr	r3, [r3, #104]
 141 008e 40F20140 		movw	r0, #1025
 142 0092 9847     		blx	r3
 143              	.LVL18:
  92:pinout.c      ****     ROM_GPIOPinTypeUART(GPIO_PORTA_BASE, GPIO_PIN_0 | GPIO_PIN_1);
 144              		.loc 1 92 0
 145 0094 2368     		ldr	r3, [r4]
 146 0096 5B6D     		ldr	r3, [r3, #84]
 147 0098 0321     		movs	r1, #3
 148 009a 4FF04020 		mov	r0, #1073758208
 149 009e 9847     		blx	r3
 150              	.LVL19:
  93:pinout.c      **** 
  94:pinout.c      ****     //
  95:pinout.c      ****     // PB0-1/PD6/PL6-7 are used for USB.
  96:pinout.c      ****     // PQ4 can be used as a power fault detect on this board but it is not
  97:pinout.c      ****     // the hardware peripheral power fault input pin.
  98:pinout.c      ****     //
  99:pinout.c      ****     if(bUSB)
 151              		.loc 1 99 0
 152 00a0 002E     		cmp	r6, #0
 153 00a2 53D0     		beq	.L2
 100:pinout.c      ****     {
 101:pinout.c      ****         HWREG(GPIO_PORTD_BASE + GPIO_O_LOCK) = GPIO_LOCK_KEY;
 154              		.loc 1 101 0
 155 00a4 484B     		ldr	r3, .L7+64
 156 00a6 494A     		ldr	r2, .L7+68
 157 00a8 1A60     		str	r2, [r3]
 102:pinout.c      ****         HWREG(GPIO_PORTD_BASE + GPIO_O_CR) = 0xff;
 158              		.loc 1 102 0
 159 00aa 0433     		adds	r3, r3, #4
 160 00ac FF22     		movs	r2, #255
 161 00ae 1A60     		str	r2, [r3]
 103:pinout.c      ****         ROM_GPIOPinConfigure(GPIO_PD6_USB0EPEN);
 162              		.loc 1 103 0
 163 00b0 2368     		ldr	r3, [r4]
 164 00b2 9B6E     		ldr	r3, [r3, #104]
 165 00b4 4648     		ldr	r0, .L7+72
 166 00b6 9847     		blx	r3
 167              	.LVL20:
 104:pinout.c      ****         ROM_GPIOPinTypeUSBAnalog(GPIO_PORTB_BASE, GPIO_PIN_0 | GPIO_PIN_1);
 168              		.loc 1 104 0
 169 00b8 2368     		ldr	r3, [r4]
 170 00ba 1B6F     		ldr	r3, [r3, #112]
 171 00bc 0321     		movs	r1, #3
 172 00be 4548     		ldr	r0, .L7+76
 173 00c0 9847     		blx	r3
 174              	.LVL21:
 105:pinout.c      ****         ROM_GPIOPinTypeUSBDigital(GPIO_PORTD_BASE, GPIO_PIN_6);
 175              		.loc 1 105 0
 176 00c2 2368     		ldr	r3, [r4]
 177 00c4 1B6E     		ldr	r3, [r3, #96]
 178 00c6 4021     		movs	r1, #64
 179 00c8 4348     		ldr	r0, .L7+80
 180 00ca 9847     		blx	r3
ARM GAS  C:\Users\Diogo\AppData\Local\Temp\ccPgOiI9.s 			page 6


 181              	.LVL22:
 106:pinout.c      ****         ROM_GPIOPinTypeUSBAnalog(GPIO_PORTL_BASE, GPIO_PIN_6 | GPIO_PIN_7);
 182              		.loc 1 106 0
 183 00cc 2368     		ldr	r3, [r4]
 184 00ce 1B6F     		ldr	r3, [r3, #112]
 185 00d0 C021     		movs	r1, #192
 186 00d2 4248     		ldr	r0, .L7+84
 187 00d4 9847     		blx	r3
 188              	.LVL23:
 107:pinout.c      ****         ROM_GPIOPinTypeGPIOInput(GPIO_PORTQ_BASE, GPIO_PIN_4);
 189              		.loc 1 107 0
 190 00d6 2368     		ldr	r3, [r4]
 191 00d8 9B6B     		ldr	r3, [r3, #56]
 192 00da 1021     		movs	r1, #16
 193 00dc 4048     		ldr	r0, .L7+88
 194 00de 9847     		blx	r3
 195              	.LVL24:
 196              	.L3:
 108:pinout.c      ****     }
 109:pinout.c      ****     else
 110:pinout.c      ****     {
 111:pinout.c      ****         //
 112:pinout.c      ****         // Keep the default config for most pins used by USB.
 113:pinout.c      ****         // Add a pull down to PD6 to turn off the TPS2052 switch
 114:pinout.c      ****         //
 115:pinout.c      ****         ROM_GPIOPinTypeGPIOInput(GPIO_PORTD_BASE, GPIO_PIN_6);
 116:pinout.c      ****         MAP_GPIOPadConfigSet(GPIO_PORTD_BASE, GPIO_PIN_6, GPIO_STRENGTH_2MA,
 117:pinout.c      ****                              GPIO_PIN_TYPE_STD_WPD);
 118:pinout.c      **** 
 119:pinout.c      ****     }
 120:pinout.c      **** 
 121:pinout.c      ****     //
 122:pinout.c      ****     // PF0/PF4 are used for Ethernet LEDs.
 123:pinout.c      ****     //
 124:pinout.c      ****     if(bEthernet)
 197              		.loc 1 124 0
 198 00e0 002D     		cmp	r5, #0
 199 00e2 41D1     		bne	.L6
 125:pinout.c      ****     {
 126:pinout.c      ****         //
 127:pinout.c      ****         // this app wants to configure for ethernet LED function.
 128:pinout.c      ****         //
 129:pinout.c      ****         ROM_GPIOPinConfigure(GPIO_PF0_EN0LED0);
 130:pinout.c      ****         ROM_GPIOPinConfigure(GPIO_PF4_EN0LED1);
 131:pinout.c      **** 
 132:pinout.c      ****         GPIOPinTypeEthernetLED(GPIO_PORTF_BASE, GPIO_PIN_0 | GPIO_PIN_4);
 133:pinout.c      **** 
 134:pinout.c      ****     }
 135:pinout.c      ****     else
 136:pinout.c      ****     {
 137:pinout.c      **** 
 138:pinout.c      ****         //
 139:pinout.c      ****         // This app does not want Ethernet LED function so configure as
 140:pinout.c      ****         // standard outputs for LED driving.
 141:pinout.c      ****         //
 142:pinout.c      ****         ROM_GPIOPinTypeGPIOOutput(GPIO_PORTF_BASE, GPIO_PIN_0 | GPIO_PIN_4);
 200              		.loc 1 142 0
ARM GAS  C:\Users\Diogo\AppData\Local\Temp\ccPgOiI9.s 			page 7


 201 00e4 3F4C     		ldr	r4, .L7+92
 202 00e6 404D     		ldr	r5, .L7+96
 203 00e8 2B68     		ldr	r3, [r5]
 204 00ea DB6B     		ldr	r3, [r3, #60]
 205 00ec 1121     		movs	r1, #17
 206 00ee 2046     		mov	r0, r4
 207 00f0 9847     		blx	r3
 208              	.LVL25:
 143:pinout.c      **** 
 144:pinout.c      ****         //
 145:pinout.c      ****         // Default the LEDs to OFF.
 146:pinout.c      ****         //
 147:pinout.c      ****         ROM_GPIOPinWrite(GPIO_PORTF_BASE, GPIO_PIN_0 | GPIO_PIN_4, 0);
 209              		.loc 1 147 0
 210 00f2 2B68     		ldr	r3, [r5]
 211 00f4 1B68     		ldr	r3, [r3]
 212 00f6 0022     		movs	r2, #0
 213 00f8 1121     		movs	r1, #17
 214 00fa 2046     		mov	r0, r4
 215 00fc 9847     		blx	r3
 216              	.LVL26:
 148:pinout.c      ****         MAP_GPIOPadConfigSet(GPIO_PORTF_BASE, GPIO_PIN_0 | GPIO_PIN_4,
 217              		.loc 1 148 0
 218 00fe 0823     		movs	r3, #8
 219 0100 7722     		movs	r2, #119
 220 0102 1121     		movs	r1, #17
 221 0104 2046     		mov	r0, r4
 222 0106 FFF7FEFF 		bl	GPIOPadConfigSet
 223              	.LVL27:
 224              	.L5:
 149:pinout.c      ****                              GPIO_STRENGTH_12MA, GPIO_PIN_TYPE_STD);
 150:pinout.c      **** 
 151:pinout.c      **** 
 152:pinout.c      ****     }
 153:pinout.c      **** 
 154:pinout.c      ****     //
 155:pinout.c      ****     // PJ0 and J1 are used for user buttons
 156:pinout.c      ****     //
 157:pinout.c      ****     ROM_GPIOPinTypeGPIOInput(GPIO_PORTJ_BASE, GPIO_PIN_0 | GPIO_PIN_1);
 225              		.loc 1 157 0
 226 010a 384D     		ldr	r5, .L7+100
 227 010c 364C     		ldr	r4, .L7+96
 228 010e 2368     		ldr	r3, [r4]
 229 0110 9B6B     		ldr	r3, [r3, #56]
 230 0112 0321     		movs	r1, #3
 231 0114 2846     		mov	r0, r5
 232 0116 9847     		blx	r3
 233              	.LVL28:
 158:pinout.c      ****     ROM_GPIOPinWrite(GPIO_PORTJ_BASE, GPIO_PIN_0 | GPIO_PIN_1, 0);
 234              		.loc 1 158 0
 235 0118 2368     		ldr	r3, [r4]
 236 011a 1B68     		ldr	r3, [r3]
 237 011c 0022     		movs	r2, #0
 238 011e 0321     		movs	r1, #3
 239 0120 2846     		mov	r0, r5
 240 0122 9847     		blx	r3
 241              	.LVL29:
ARM GAS  C:\Users\Diogo\AppData\Local\Temp\ccPgOiI9.s 			page 8


 159:pinout.c      **** 
 160:pinout.c      ****     //
 161:pinout.c      ****     // PN0 and PN1 are used for USER LEDs.
 162:pinout.c      ****     //
 163:pinout.c      ****     ROM_GPIOPinTypeGPIOOutput(GPIO_PORTN_BASE, GPIO_PIN_0 | GPIO_PIN_1);
 242              		.loc 1 163 0
 243 0124 05F51C35 		add	r5, r5, #159744
 244 0128 2368     		ldr	r3, [r4]
 245 012a DB6B     		ldr	r3, [r3, #60]
 246 012c 0321     		movs	r1, #3
 247 012e 2846     		mov	r0, r5
 248 0130 9847     		blx	r3
 249              	.LVL30:
 164:pinout.c      ****     MAP_GPIOPadConfigSet(GPIO_PORTN_BASE, GPIO_PIN_0 | GPIO_PIN_1,
 250              		.loc 1 164 0
 251 0132 0823     		movs	r3, #8
 252 0134 7722     		movs	r2, #119
 253 0136 0321     		movs	r1, #3
 254 0138 2846     		mov	r0, r5
 255 013a FFF7FEFF 		bl	GPIOPadConfigSet
 256              	.LVL31:
 165:pinout.c      ****                              GPIO_STRENGTH_12MA, GPIO_PIN_TYPE_STD);
 166:pinout.c      **** 
 167:pinout.c      ****     //
 168:pinout.c      ****     // Default the LEDs to OFF.
 169:pinout.c      ****     //
 170:pinout.c      ****     ROM_GPIOPinWrite(GPIO_PORTN_BASE, GPIO_PIN_0 | GPIO_PIN_1, 0);
 257              		.loc 1 170 0
 258 013e 2368     		ldr	r3, [r4]
 259 0140 1B68     		ldr	r3, [r3]
 260 0142 0022     		movs	r2, #0
 261 0144 0321     		movs	r1, #3
 262 0146 2846     		mov	r0, r5
 263 0148 9847     		blx	r3
 264              	.LVL32:
 171:pinout.c      **** }
 265              		.loc 1 171 0
 266 014a 70BD     		pop	{r4, r5, r6, pc}
 267              	.L2:
 115:pinout.c      ****         MAP_GPIOPadConfigSet(GPIO_PORTD_BASE, GPIO_PIN_6, GPIO_STRENGTH_2MA,
 268              		.loc 1 115 0
 269 014c 224C     		ldr	r4, .L7+80
 270 014e 264B     		ldr	r3, .L7+96
 271 0150 1B68     		ldr	r3, [r3]
 272 0152 9B6B     		ldr	r3, [r3, #56]
 273 0154 4021     		movs	r1, #64
 274 0156 2046     		mov	r0, r4
 275 0158 9847     		blx	r3
 276              	.LVL33:
 116:pinout.c      ****                              GPIO_PIN_TYPE_STD_WPD);
 277              		.loc 1 116 0
 278 015a 0C23     		movs	r3, #12
 279 015c 0122     		movs	r2, #1
 280 015e 4021     		movs	r1, #64
 281 0160 2046     		mov	r0, r4
 282 0162 FFF7FEFF 		bl	GPIOPadConfigSet
 283              	.LVL34:
ARM GAS  C:\Users\Diogo\AppData\Local\Temp\ccPgOiI9.s 			page 9


 284 0166 BBE7     		b	.L3
 285              	.L6:
 129:pinout.c      ****         ROM_GPIOPinConfigure(GPIO_PF4_EN0LED1);
 286              		.loc 1 129 0
 287 0168 1F4C     		ldr	r4, .L7+96
 288 016a 2368     		ldr	r3, [r4]
 289 016c 9B6E     		ldr	r3, [r3, #104]
 290 016e 4FF00510 		mov	r0, #327685
 291 0172 9847     		blx	r3
 292              	.LVL35:
 130:pinout.c      **** 
 293              		.loc 1 130 0
 294 0174 2368     		ldr	r3, [r4]
 295 0176 9B6E     		ldr	r3, [r3, #104]
 296 0178 1D48     		ldr	r0, .L7+104
 297 017a 9847     		blx	r3
 298              	.LVL36:
 132:pinout.c      **** 
 299              		.loc 1 132 0
 300 017c 1121     		movs	r1, #17
 301 017e 1948     		ldr	r0, .L7+92
 302 0180 FFF7FEFF 		bl	GPIOPinTypeEthernetLED
 303              	.LVL37:
 304 0184 C1E7     		b	.L5
 305              	.L8:
 306 0186 00BF     		.align	2
 307              	.L7:
 308 0188 44000001 		.word	16777284
 309 018c 000800F0 		.word	-268433408
 310 0190 010800F0 		.word	-268433407
 311 0194 020800F0 		.word	-268433406
 312 0198 030800F0 		.word	-268433405
 313 019c 040800F0 		.word	-268433404
 314 01a0 050800F0 		.word	-268433403
 315 01a4 060800F0 		.word	-268433402
 316 01a8 070800F0 		.word	-268433401
 317 01ac 080800F0 		.word	-268433400
 318 01b0 090800F0 		.word	-268433399
 319 01b4 0A0800F0 		.word	-268433398
 320 01b8 0B0800F0 		.word	-268433397
 321 01bc 0C0800F0 		.word	-268433396
 322 01c0 0D0800F0 		.word	-268433395
 323 01c4 0E0800F0 		.word	-268433394
 324 01c8 20750040 		.word	1073771808
 325 01cc 4B434F4C 		.word	1280262987
 326 01d0 05180300 		.word	202757
 327 01d4 00500040 		.word	1073762304
 328 01d8 00700040 		.word	1073770496
 329 01dc 00200640 		.word	1074143232
 330 01e0 00600640 		.word	1074159616
 331 01e4 00500240 		.word	1073893376
 332 01e8 20000001 		.word	16777248
 333 01ec 00D00340 		.word	1073991680
 334 01f0 05100500 		.word	331781
 335              		.cfi_endproc
 336              	.LFE0:
 337              		.size	PinoutSet, .-PinoutSet
ARM GAS  C:\Users\Diogo\AppData\Local\Temp\ccPgOiI9.s 			page 10


 338              		.align	1
 339              		.global	LEDWrite
 340              		.syntax unified
 341              		.thumb
 342              		.thumb_func
 343              		.fpu softvfp
 344              		.type	LEDWrite, %function
 345              	LEDWrite:
 346              	.LFB1:
 172:pinout.c      **** 
 173:pinout.c      **** //*****************************************************************************
 174:pinout.c      **** //
 175:pinout.c      **** //! This function writes a state to the LED bank.
 176:pinout.c      **** //!
 177:pinout.c      **** //! \param ui32LEDMask is a bit mask for which GPIO should be changed by this
 178:pinout.c      **** //! call.
 179:pinout.c      **** //! \param ui32LEDValue is the new value to be applied to the LEDs after the
 180:pinout.c      **** //! ui32LEDMask is applied.
 181:pinout.c      **** //!
 182:pinout.c      **** //! The first parameter acts as a mask.  Only bits in the mask that are set
 183:pinout.c      **** //! will correspond to LEDs that may change.  LEDs with a mask that is not set
 184:pinout.c      **** //! will not change. This works the same as GPIOPinWrite. After applying the
 185:pinout.c      **** //! mask the setting for each unmasked LED is written to the corresponding
 186:pinout.c      **** //! LED port pin via GPIOPinWrite.
 187:pinout.c      **** //!
 188:pinout.c      **** //! \return None.
 189:pinout.c      **** //
 190:pinout.c      **** //*****************************************************************************
 191:pinout.c      **** void
 192:pinout.c      **** LEDWrite(uint32_t ui32LEDMask, uint32_t ui32LEDValue)
 193:pinout.c      **** {
 347              		.loc 1 193 0
 348              		.cfi_startproc
 349              		@ args = 0, pretend = 0, frame = 0
 350              		@ frame_needed = 0, uses_anonymous_args = 0
 351              	.LVL38:
 352 01f4 38B5     		push	{r3, r4, r5, lr}
 353              	.LCFI1:
 354              		.cfi_def_cfa_offset 16
 355              		.cfi_offset 3, -16
 356              		.cfi_offset 4, -12
 357              		.cfi_offset 5, -8
 358              		.cfi_offset 14, -4
 359 01f6 0446     		mov	r4, r0
 360 01f8 0D46     		mov	r5, r1
 194:pinout.c      **** 
 195:pinout.c      ****     //
 196:pinout.c      ****     // Check the mask and set or clear the LED as directed.
 197:pinout.c      ****     //
 198:pinout.c      ****     if(ui32LEDMask & CLP_D1)
 361              		.loc 1 198 0
 362 01fa 10F0010F 		tst	r0, #1
 363 01fe 09D0     		beq	.L10
 199:pinout.c      ****     {
 200:pinout.c      ****         if(ui32LEDValue & CLP_D1)
 364              		.loc 1 200 0
 365 0200 11F0010F 		tst	r1, #1
ARM GAS  C:\Users\Diogo\AppData\Local\Temp\ccPgOiI9.s 			page 11


 201:pinout.c      ****         {
 202:pinout.c      ****             GPIOPinWrite(CLP_D1_PORT, CLP_D1_PIN, CLP_D1_PIN);
 366              		.loc 1 202 0
 367 0204 19BF     		ittee	ne
 368 0206 0222     		movne	r2, #2
 369 0208 1146     		movne	r1, r2
 370              	.LVL39:
 203:pinout.c      ****         }
 204:pinout.c      ****         else
 205:pinout.c      ****         {
 206:pinout.c      ****             GPIOPinWrite(CLP_D1_PORT, CLP_D1_PIN, 0);
 371              		.loc 1 206 0
 372 020a 0022     		moveq	r2, #0
 373 020c 0221     		moveq	r1, #2
 374 020e 1548     		ldr	r0, .L18
 375              	.LVL40:
 376 0210 FFF7FEFF 		bl	GPIOPinWrite
 377              	.LVL41:
 378              	.L10:
 207:pinout.c      ****         }
 208:pinout.c      ****     }
 209:pinout.c      **** 
 210:pinout.c      ****     if(ui32LEDMask & CLP_D2)
 379              		.loc 1 210 0
 380 0214 14F0020F 		tst	r4, #2
 381 0218 09D0     		beq	.L12
 211:pinout.c      ****     {
 212:pinout.c      ****         if(ui32LEDValue & CLP_D2)
 382              		.loc 1 212 0
 383 021a 15F0020F 		tst	r5, #2
 213:pinout.c      ****         {
 214:pinout.c      ****             GPIOPinWrite(CLP_D2_PORT, CLP_D2_PIN, CLP_D2_PIN);
 384              		.loc 1 214 0
 385 021e 19BF     		ittee	ne
 386 0220 0122     		movne	r2, #1
 387 0222 1146     		movne	r1, r2
 215:pinout.c      ****         }
 216:pinout.c      ****         else
 217:pinout.c      ****         {
 218:pinout.c      ****             GPIOPinWrite(CLP_D2_PORT, CLP_D2_PIN, 0);
 388              		.loc 1 218 0
 389 0224 0022     		moveq	r2, #0
 390 0226 0121     		moveq	r1, #1
 391 0228 0E48     		ldr	r0, .L18
 392 022a FFF7FEFF 		bl	GPIOPinWrite
 393              	.LVL42:
 394              	.L12:
 219:pinout.c      ****         }
 220:pinout.c      ****     }
 221:pinout.c      **** 
 222:pinout.c      ****     if(ui32LEDMask & CLP_D3)
 395              		.loc 1 222 0
 396 022e 14F0040F 		tst	r4, #4
 397 0232 09D0     		beq	.L14
 223:pinout.c      ****     {
 224:pinout.c      ****         if(ui32LEDValue & CLP_D3)
 398              		.loc 1 224 0
ARM GAS  C:\Users\Diogo\AppData\Local\Temp\ccPgOiI9.s 			page 12


 399 0234 15F0040F 		tst	r5, #4
 225:pinout.c      ****         {
 226:pinout.c      ****             GPIOPinWrite(CLP_D3_PORT, CLP_D3_PIN, CLP_D3_PIN);
 400              		.loc 1 226 0
 401 0238 19BF     		ittee	ne
 402 023a 1022     		movne	r2, #16
 403 023c 1146     		movne	r1, r2
 227:pinout.c      ****         }
 228:pinout.c      ****         else
 229:pinout.c      ****         {
 230:pinout.c      ****             GPIOPinWrite(CLP_D3_PORT, CLP_D3_PIN, 0);
 404              		.loc 1 230 0
 405 023e 0022     		moveq	r2, #0
 406 0240 1021     		moveq	r1, #16
 407 0242 0948     		ldr	r0, .L18+4
 408 0244 FFF7FEFF 		bl	GPIOPinWrite
 409              	.LVL43:
 410              	.L14:
 231:pinout.c      ****         }
 232:pinout.c      ****     }
 233:pinout.c      **** 
 234:pinout.c      ****     if(ui32LEDMask & CLP_D4)
 411              		.loc 1 234 0
 412 0248 14F0080F 		tst	r4, #8
 413 024c 09D0     		beq	.L9
 235:pinout.c      ****     {
 236:pinout.c      ****         if(ui32LEDValue & CLP_D4)
 414              		.loc 1 236 0
 415 024e 15F0080F 		tst	r5, #8
 237:pinout.c      ****         {
 238:pinout.c      ****             GPIOPinWrite(CLP_D4_PORT, CLP_D4_PIN, CLP_D4_PIN);
 416              		.loc 1 238 0
 417 0252 19BF     		ittee	ne
 418 0254 0122     		movne	r2, #1
 419 0256 1146     		movne	r1, r2
 239:pinout.c      ****         }
 240:pinout.c      ****         else
 241:pinout.c      ****         {
 242:pinout.c      ****             GPIOPinWrite(CLP_D4_PORT, CLP_D4_PIN, 0);
 420              		.loc 1 242 0
 421 0258 0022     		moveq	r2, #0
 422 025a 0121     		moveq	r1, #1
 423 025c 0248     		ldr	r0, .L18+4
 424 025e FFF7FEFF 		bl	GPIOPinWrite
 425              	.LVL44:
 426              	.L9:
 243:pinout.c      ****         }
 244:pinout.c      ****     }
 245:pinout.c      **** }
 427              		.loc 1 245 0
 428 0262 38BD     		pop	{r3, r4, r5, pc}
 429              	.LVL45:
 430              	.L19:
 431              		.align	2
 432              	.L18:
 433 0264 00400640 		.word	1074151424
 434 0268 00500240 		.word	1073893376
ARM GAS  C:\Users\Diogo\AppData\Local\Temp\ccPgOiI9.s 			page 13


 435              		.cfi_endproc
 436              	.LFE1:
 437              		.size	LEDWrite, .-LEDWrite
 438              		.align	1
 439              		.global	LEDRead
 440              		.syntax unified
 441              		.thumb
 442              		.thumb_func
 443              		.fpu softvfp
 444              		.type	LEDRead, %function
 445              	LEDRead:
 446              	.LFB2:
 246:pinout.c      **** 
 247:pinout.c      **** //*****************************************************************************
 248:pinout.c      **** //
 249:pinout.c      **** //! This function reads the state to the LED bank.
 250:pinout.c      **** //!
 251:pinout.c      **** //! \param pui32LEDValue is a pointer to where the LED value will be stored.
 252:pinout.c      **** //!
 253:pinout.c      **** //! This function reads the state of the CLP LEDs and stores that state
 254:pinout.c      **** //! information into the variable pointed to by pui32LEDValue.
 255:pinout.c      **** //!
 256:pinout.c      **** //! \return None.
 257:pinout.c      **** //
 258:pinout.c      **** //*****************************************************************************
 259:pinout.c      **** void LEDRead(uint32_t *pui32LEDValue)
 260:pinout.c      **** {
 447              		.loc 1 260 0
 448              		.cfi_startproc
 449              		@ args = 0, pretend = 0, frame = 0
 450              		@ frame_needed = 0, uses_anonymous_args = 0
 451              	.LVL46:
 452 026c 10B5     		push	{r4, lr}
 453              	.LCFI2:
 454              		.cfi_def_cfa_offset 8
 455              		.cfi_offset 4, -8
 456              		.cfi_offset 14, -4
 457 026e 0446     		mov	r4, r0
 261:pinout.c      ****     *pui32LEDValue = 0;
 458              		.loc 1 261 0
 459 0270 0023     		movs	r3, #0
 460 0272 0360     		str	r3, [r0]
 262:pinout.c      **** 
 263:pinout.c      ****     //
 264:pinout.c      ****     // Read the pin state and set the variable bit if needed.
 265:pinout.c      ****     //
 266:pinout.c      ****     if(GPIOPinRead(CLP_D4_PORT, CLP_D4_PIN))
 461              		.loc 1 266 0
 462 0274 0121     		movs	r1, #1
 463 0276 1248     		ldr	r0, .L25
 464              	.LVL47:
 465 0278 FFF7FEFF 		bl	GPIOPinRead
 466              	.LVL48:
 467 027c 18B1     		cbz	r0, .L21
 267:pinout.c      ****     {
 268:pinout.c      ****         *pui32LEDValue |= CLP_D4;
 468              		.loc 1 268 0
ARM GAS  C:\Users\Diogo\AppData\Local\Temp\ccPgOiI9.s 			page 14


 469 027e 2368     		ldr	r3, [r4]
 470 0280 43F00803 		orr	r3, r3, #8
 471 0284 2360     		str	r3, [r4]
 472              	.L21:
 269:pinout.c      ****     }
 270:pinout.c      **** 
 271:pinout.c      ****     //
 272:pinout.c      ****     // Read the pin state and set the variable bit if needed.
 273:pinout.c      ****     //
 274:pinout.c      ****     if(GPIOPinRead(CLP_D3_PORT, CLP_D3_PIN))
 473              		.loc 1 274 0
 474 0286 1021     		movs	r1, #16
 475 0288 0D48     		ldr	r0, .L25
 476 028a FFF7FEFF 		bl	GPIOPinRead
 477              	.LVL49:
 478 028e 18B1     		cbz	r0, .L22
 275:pinout.c      ****     {
 276:pinout.c      ****         *pui32LEDValue |= CLP_D3;
 479              		.loc 1 276 0
 480 0290 2368     		ldr	r3, [r4]
 481 0292 43F00403 		orr	r3, r3, #4
 482 0296 2360     		str	r3, [r4]
 483              	.L22:
 277:pinout.c      ****     }
 278:pinout.c      **** 
 279:pinout.c      ****     //
 280:pinout.c      ****     // Read the pin state and set the variable bit if needed.
 281:pinout.c      ****     //
 282:pinout.c      ****     if(GPIOPinRead(CLP_D2_PORT, CLP_D2_PIN))
 484              		.loc 1 282 0
 485 0298 0121     		movs	r1, #1
 486 029a 0A48     		ldr	r0, .L25+4
 487 029c FFF7FEFF 		bl	GPIOPinRead
 488              	.LVL50:
 489 02a0 18B1     		cbz	r0, .L23
 283:pinout.c      ****     {
 284:pinout.c      ****         *pui32LEDValue |= CLP_D2;
 490              		.loc 1 284 0
 491 02a2 2368     		ldr	r3, [r4]
 492 02a4 43F00203 		orr	r3, r3, #2
 493 02a8 2360     		str	r3, [r4]
 494              	.L23:
 285:pinout.c      ****     }
 286:pinout.c      **** 
 287:pinout.c      ****     //
 288:pinout.c      ****     // Read the pin state and set the variable bit if needed.
 289:pinout.c      ****     //
 290:pinout.c      ****     if(GPIOPinRead(CLP_D1_PORT, CLP_D1_PIN))
 495              		.loc 1 290 0
 496 02aa 0221     		movs	r1, #2
 497 02ac 0548     		ldr	r0, .L25+4
 498 02ae FFF7FEFF 		bl	GPIOPinRead
 499              	.LVL51:
 500 02b2 18B1     		cbz	r0, .L20
 291:pinout.c      ****     {
 292:pinout.c      ****         *pui32LEDValue |= CLP_D1;
 501              		.loc 1 292 0
ARM GAS  C:\Users\Diogo\AppData\Local\Temp\ccPgOiI9.s 			page 15


 502 02b4 2368     		ldr	r3, [r4]
 503 02b6 43F00103 		orr	r3, r3, #1
 504 02ba 2360     		str	r3, [r4]
 505              	.L20:
 293:pinout.c      ****     }
 294:pinout.c      **** }
 506              		.loc 1 294 0
 507 02bc 10BD     		pop	{r4, pc}
 508              	.LVL52:
 509              	.L26:
 510 02be 00BF     		.align	2
 511              	.L25:
 512 02c0 00500240 		.word	1073893376
 513 02c4 00400640 		.word	1074151424
 514              		.cfi_endproc
 515              	.LFE2:
 516              		.size	LEDRead, .-LEDRead
 517              	.Letext0:
 518              		.file 2 "c:\\program files (x86)\\gnu tools arm embedded\\7 2018-q2-update\\arm-none-eabi\\include
 519              		.file 3 "c:\\program files (x86)\\gnu tools arm embedded\\7 2018-q2-update\\arm-none-eabi\\include
 520              		.file 4 "./inc/driverlib\\gpio.h"