ARM GAS  C:\Users\Diogo\AppData\Local\Temp\cciwJ6rh.s 			page 1


   1              		.cpu cortex-m4
   2              		.eabi_attribute 20, 1
   3              		.eabi_attribute 21, 1
   4              		.eabi_attribute 23, 3
   5              		.eabi_attribute 24, 1
   6              		.eabi_attribute 25, 1
   7              		.eabi_attribute 26, 1
   8              		.eabi_attribute 30, 1
   9              		.eabi_attribute 34, 1
  10              		.eabi_attribute 18, 4
  11              		.file	"startup_gcc.c"
  12              		.text
  13              	.Ltext0:
  14              		.cfi_sections	.debug_frame
  15              		.align	1
  16              		.syntax unified
  17              		.thumb
  18              		.thumb_func
  19              		.fpu softvfp
  20              		.type	NmiSR, %function
  21              	NmiSR:
  22              	.LFB1:
  23              		.file 1 "startup_gcc.c"
   1:startup_gcc.c **** //*****************************************************************************
   2:startup_gcc.c **** //
   3:startup_gcc.c **** // startup_gcc.c - Startup code for use with GNU tools.
   4:startup_gcc.c **** //
   5:startup_gcc.c **** // Copyright (c) 2013-2014 Texas Instruments Incorporated.  All rights reserved.
   6:startup_gcc.c **** // Software License Agreement
   7:startup_gcc.c **** // 
   8:startup_gcc.c **** // Texas Instruments (TI) is supplying this software for use solely and
   9:startup_gcc.c **** // exclusively on TI's microcontroller products. The software is owned by
  10:startup_gcc.c **** // TI and/or its suppliers, and is protected under applicable copyright
  11:startup_gcc.c **** // laws. You may not combine this software with "viral" open-source
  12:startup_gcc.c **** // software in order to form a larger program.
  13:startup_gcc.c **** // 
  14:startup_gcc.c **** // THIS SOFTWARE IS PROVIDED "AS IS" AND WITH ALL FAULTS.
  15:startup_gcc.c **** // NO WARRANTIES, WHETHER EXPRESS, IMPLIED OR STATUTORY, INCLUDING, BUT
  16:startup_gcc.c **** // NOT LIMITED TO, IMPLIED WARRANTIES OF MERCHANTABILITY AND FITNESS FOR
  17:startup_gcc.c **** // A PARTICULAR PURPOSE APPLY TO THIS SOFTWARE. TI SHALL NOT, UNDER ANY
  18:startup_gcc.c **** // CIRCUMSTANCES, BE LIABLE FOR SPECIAL, INCIDENTAL, OR CONSEQUENTIAL
  19:startup_gcc.c **** // DAMAGES, FOR ANY REASON WHATSOEVER.
  20:startup_gcc.c **** // 
  21:startup_gcc.c **** // This is part of revision 2.1.0.12573 of the EK-TM4C1294XL Firmware Package.
  22:startup_gcc.c **** //
  23:startup_gcc.c **** //*****************************************************************************
  24:startup_gcc.c **** 
  25:startup_gcc.c **** #include <stdint.h>
  26:startup_gcc.c **** #include "hw_nvic.h"
  27:startup_gcc.c **** #include "hw_types.h"
  28:startup_gcc.c **** 
  29:startup_gcc.c **** //*****************************************************************************
  30:startup_gcc.c **** //
  31:startup_gcc.c **** // Forward declaration of the default fault handlers.
  32:startup_gcc.c **** //
  33:startup_gcc.c **** //*****************************************************************************
  34:startup_gcc.c **** void ResetISR(void);
ARM GAS  C:\Users\Diogo\AppData\Local\Temp\cciwJ6rh.s 			page 2


  35:startup_gcc.c **** static void NmiSR(void);
  36:startup_gcc.c **** static void FaultISR(void);
  37:startup_gcc.c **** static void IntDefaultHandler(void);
  38:startup_gcc.c **** 
  39:startup_gcc.c **** //*****************************************************************************
  40:startup_gcc.c **** //
  41:startup_gcc.c **** // The entry point for the application.
  42:startup_gcc.c **** //
  43:startup_gcc.c **** //*****************************************************************************
  44:startup_gcc.c **** extern int main(void);
  45:startup_gcc.c **** 
  46:startup_gcc.c **** //*****************************************************************************
  47:startup_gcc.c **** //
  48:startup_gcc.c **** // Reserve space for the system stack.
  49:startup_gcc.c **** //
  50:startup_gcc.c **** //*****************************************************************************
  51:startup_gcc.c **** static uint32_t pui32Stack[128];
  52:startup_gcc.c **** 
  53:startup_gcc.c **** //*****************************************************************************
  54:startup_gcc.c **** //
  55:startup_gcc.c **** // The vector table.  Note that the proper constructs must be placed on this to
  56:startup_gcc.c **** // ensure that it ends up at physical address 0x0000.0000.
  57:startup_gcc.c **** //
  58:startup_gcc.c **** //*****************************************************************************
  59:startup_gcc.c **** __attribute__ ((section(".isr_vector")))
  60:startup_gcc.c **** void (* const g_pfnVectors[])(void) =
  61:startup_gcc.c **** {
  62:startup_gcc.c ****     (void (*)(void))((uint32_t)pui32Stack + sizeof(pui32Stack)),
  63:startup_gcc.c ****                                             // The initial stack pointer
  64:startup_gcc.c ****     ResetISR,                               // The reset handler
  65:startup_gcc.c ****     NmiSR,                                  // The NMI handler
  66:startup_gcc.c ****     FaultISR,                               // The hard fault handler
  67:startup_gcc.c ****     IntDefaultHandler,                      // The MPU fault handler
  68:startup_gcc.c ****     IntDefaultHandler,                      // The bus fault handler
  69:startup_gcc.c ****     IntDefaultHandler,                      // The usage fault handler
  70:startup_gcc.c ****     0,                                      // Reserved
  71:startup_gcc.c ****     0,                                      // Reserved
  72:startup_gcc.c ****     0,                                      // Reserved
  73:startup_gcc.c ****     0,                                      // Reserved
  74:startup_gcc.c ****     IntDefaultHandler,                      // SVCall handler
  75:startup_gcc.c ****     IntDefaultHandler,                      // Debug monitor handler
  76:startup_gcc.c ****     0,                                      // Reserved
  77:startup_gcc.c ****     IntDefaultHandler,                      // The PendSV handler
  78:startup_gcc.c ****     IntDefaultHandler,                      // The SysTick handler
  79:startup_gcc.c ****     IntDefaultHandler,                      // GPIO Port A
  80:startup_gcc.c ****     IntDefaultHandler,                      // GPIO Port B
  81:startup_gcc.c ****     IntDefaultHandler,                      // GPIO Port C
  82:startup_gcc.c ****     IntDefaultHandler,                      // GPIO Port D
  83:startup_gcc.c ****     IntDefaultHandler,                      // GPIO Port E
  84:startup_gcc.c ****     IntDefaultHandler,                      // UART0 Rx and Tx
  85:startup_gcc.c ****     IntDefaultHandler,                      // UART1 Rx and Tx
  86:startup_gcc.c ****     IntDefaultHandler,                      // SSI0 Rx and Tx
  87:startup_gcc.c ****     IntDefaultHandler,                      // I2C0 Master and Slave
  88:startup_gcc.c ****     IntDefaultHandler,                      // PWM Fault
  89:startup_gcc.c ****     IntDefaultHandler,                      // PWM Generator 0
  90:startup_gcc.c ****     IntDefaultHandler,                      // PWM Generator 1
  91:startup_gcc.c ****     IntDefaultHandler,                      // PWM Generator 2
ARM GAS  C:\Users\Diogo\AppData\Local\Temp\cciwJ6rh.s 			page 3


  92:startup_gcc.c ****     IntDefaultHandler,                      // Quadrature Encoder 0
  93:startup_gcc.c ****     IntDefaultHandler,                      // ADC Sequence 0
  94:startup_gcc.c ****     IntDefaultHandler,                      // ADC Sequence 1
  95:startup_gcc.c ****     IntDefaultHandler,                      // ADC Sequence 2
  96:startup_gcc.c ****     IntDefaultHandler,                      // ADC Sequence 3
  97:startup_gcc.c ****     IntDefaultHandler,                      // Watchdog timer
  98:startup_gcc.c ****     IntDefaultHandler,                      // Timer 0 subtimer A
  99:startup_gcc.c ****     IntDefaultHandler,                      // Timer 0 subtimer B
 100:startup_gcc.c ****     IntDefaultHandler,                      // Timer 1 subtimer A
 101:startup_gcc.c ****     IntDefaultHandler,                      // Timer 1 subtimer B
 102:startup_gcc.c ****     IntDefaultHandler,                      // Timer 2 subtimer A
 103:startup_gcc.c ****     IntDefaultHandler,                      // Timer 2 subtimer B
 104:startup_gcc.c ****     IntDefaultHandler,                      // Analog Comparator 0
 105:startup_gcc.c ****     IntDefaultHandler,                      // Analog Comparator 1
 106:startup_gcc.c ****     IntDefaultHandler,                      // Analog Comparator 2
 107:startup_gcc.c ****     IntDefaultHandler,                      // System Control (PLL, OSC, BO)
 108:startup_gcc.c ****     IntDefaultHandler,                      // FLASH Control
 109:startup_gcc.c ****     IntDefaultHandler,                      // GPIO Port F
 110:startup_gcc.c ****     IntDefaultHandler,                      // GPIO Port G
 111:startup_gcc.c ****     IntDefaultHandler,                      // GPIO Port H
 112:startup_gcc.c ****     IntDefaultHandler,                      // UART2 Rx and Tx
 113:startup_gcc.c ****     IntDefaultHandler,                      // SSI1 Rx and Tx
 114:startup_gcc.c ****     IntDefaultHandler,                      // Timer 3 subtimer A
 115:startup_gcc.c ****     IntDefaultHandler,                      // Timer 3 subtimer B
 116:startup_gcc.c ****     IntDefaultHandler,                      // I2C1 Master and Slave
 117:startup_gcc.c ****     IntDefaultHandler,                      // CAN0
 118:startup_gcc.c ****     IntDefaultHandler,                      // CAN1
 119:startup_gcc.c ****     IntDefaultHandler,                      // Ethernet
 120:startup_gcc.c ****     IntDefaultHandler,                      // Hibernate
 121:startup_gcc.c ****     IntDefaultHandler,                      // USB0
 122:startup_gcc.c ****     IntDefaultHandler,                      // PWM Generator 3
 123:startup_gcc.c ****     IntDefaultHandler,                      // uDMA Software Transfer
 124:startup_gcc.c ****     IntDefaultHandler,                      // uDMA Error
 125:startup_gcc.c ****     IntDefaultHandler,                      // ADC1 Sequence 0
 126:startup_gcc.c ****     IntDefaultHandler,                      // ADC1 Sequence 1
 127:startup_gcc.c ****     IntDefaultHandler,                      // ADC1 Sequence 2
 128:startup_gcc.c ****     IntDefaultHandler,                      // ADC1 Sequence 3
 129:startup_gcc.c ****     IntDefaultHandler,                      // External Bus Interface 0
 130:startup_gcc.c ****     IntDefaultHandler,                      // GPIO Port J
 131:startup_gcc.c ****     IntDefaultHandler,                      // GPIO Port K
 132:startup_gcc.c ****     IntDefaultHandler,                      // GPIO Port L
 133:startup_gcc.c ****     IntDefaultHandler,                      // SSI2 Rx and Tx
 134:startup_gcc.c ****     IntDefaultHandler,                      // SSI3 Rx and Tx
 135:startup_gcc.c ****     IntDefaultHandler,                      // UART3 Rx and Tx
 136:startup_gcc.c ****     IntDefaultHandler,                      // UART4 Rx and Tx
 137:startup_gcc.c ****     IntDefaultHandler,                      // UART5 Rx and Tx
 138:startup_gcc.c ****     IntDefaultHandler,                      // UART6 Rx and Tx
 139:startup_gcc.c ****     IntDefaultHandler,                      // UART7 Rx and Tx
 140:startup_gcc.c ****     IntDefaultHandler,                      // I2C2 Master and Slave
 141:startup_gcc.c ****     IntDefaultHandler,                      // I2C3 Master and Slave
 142:startup_gcc.c ****     IntDefaultHandler,                      // Timer 4 subtimer A
 143:startup_gcc.c ****     IntDefaultHandler,                      // Timer 4 subtimer B
 144:startup_gcc.c ****     IntDefaultHandler,                      // Timer 5 subtimer A
 145:startup_gcc.c ****     IntDefaultHandler,                      // Timer 5 subtimer B
 146:startup_gcc.c ****     IntDefaultHandler,                      // FPU
 147:startup_gcc.c ****     0,                                      // Reserved
 148:startup_gcc.c ****     0,                                      // Reserved
ARM GAS  C:\Users\Diogo\AppData\Local\Temp\cciwJ6rh.s 			page 4


 149:startup_gcc.c ****     IntDefaultHandler,                      // I2C4 Master and Slave
 150:startup_gcc.c ****     IntDefaultHandler,                      // I2C5 Master and Slave
 151:startup_gcc.c ****     IntDefaultHandler,                      // GPIO Port M
 152:startup_gcc.c ****     IntDefaultHandler,                      // GPIO Port N
 153:startup_gcc.c ****     0,                                      // Reserved
 154:startup_gcc.c ****     IntDefaultHandler,                      // Tamper
 155:startup_gcc.c ****     IntDefaultHandler,                      // GPIO Port P (Summary or P0)
 156:startup_gcc.c ****     IntDefaultHandler,                      // GPIO Port P1
 157:startup_gcc.c ****     IntDefaultHandler,                      // GPIO Port P2
 158:startup_gcc.c ****     IntDefaultHandler,                      // GPIO Port P3
 159:startup_gcc.c ****     IntDefaultHandler,                      // GPIO Port P4
 160:startup_gcc.c ****     IntDefaultHandler,                      // GPIO Port P5
 161:startup_gcc.c ****     IntDefaultHandler,                      // GPIO Port P6
 162:startup_gcc.c ****     IntDefaultHandler,                      // GPIO Port P7
 163:startup_gcc.c ****     IntDefaultHandler,                      // GPIO Port Q (Summary or Q0)
 164:startup_gcc.c ****     IntDefaultHandler,                      // GPIO Port Q1
 165:startup_gcc.c ****     IntDefaultHandler,                      // GPIO Port Q2
 166:startup_gcc.c ****     IntDefaultHandler,                      // GPIO Port Q3
 167:startup_gcc.c ****     IntDefaultHandler,                      // GPIO Port Q4
 168:startup_gcc.c ****     IntDefaultHandler,                      // GPIO Port Q5
 169:startup_gcc.c ****     IntDefaultHandler,                      // GPIO Port Q6
 170:startup_gcc.c ****     IntDefaultHandler,                      // GPIO Port Q7
 171:startup_gcc.c ****     IntDefaultHandler,                      // GPIO Port R
 172:startup_gcc.c ****     IntDefaultHandler,                      // GPIO Port S
 173:startup_gcc.c ****     IntDefaultHandler,                      // SHA/MD5 0
 174:startup_gcc.c ****     IntDefaultHandler,                      // AES 0
 175:startup_gcc.c ****     IntDefaultHandler,                      // DES3DES 0
 176:startup_gcc.c ****     IntDefaultHandler,                      // LCD Controller 0
 177:startup_gcc.c ****     IntDefaultHandler,                      // Timer 6 subtimer A
 178:startup_gcc.c ****     IntDefaultHandler,                      // Timer 6 subtimer B
 179:startup_gcc.c ****     IntDefaultHandler,                      // Timer 7 subtimer A
 180:startup_gcc.c ****     IntDefaultHandler,                      // Timer 7 subtimer B
 181:startup_gcc.c ****     IntDefaultHandler,                      // I2C6 Master and Slave
 182:startup_gcc.c ****     IntDefaultHandler,                      // I2C7 Master and Slave
 183:startup_gcc.c ****     IntDefaultHandler,                      // HIM Scan Matrix Keyboard 0
 184:startup_gcc.c ****     IntDefaultHandler,                      // One Wire 0
 185:startup_gcc.c ****     IntDefaultHandler,                      // HIM PS/2 0
 186:startup_gcc.c ****     IntDefaultHandler,                      // HIM LED Sequencer 0
 187:startup_gcc.c ****     IntDefaultHandler,                      // HIM Consumer IR 0
 188:startup_gcc.c ****     IntDefaultHandler,                      // I2C8 Master and Slave
 189:startup_gcc.c ****     IntDefaultHandler,                      // I2C9 Master and Slave
 190:startup_gcc.c ****     IntDefaultHandler                       // GPIO Port T
 191:startup_gcc.c **** };
 192:startup_gcc.c **** 
 193:startup_gcc.c **** //*****************************************************************************
 194:startup_gcc.c **** //
 195:startup_gcc.c **** // The following are constructs created by the linker, indicating where the
 196:startup_gcc.c **** // the "data" and "bss" segments reside in memory.  The initializers for the
 197:startup_gcc.c **** // for the "data" segment resides immediately following the "text" segment.
 198:startup_gcc.c **** //
 199:startup_gcc.c **** //*****************************************************************************
 200:startup_gcc.c **** extern uint32_t _etext;
 201:startup_gcc.c **** extern uint32_t _data;
 202:startup_gcc.c **** extern uint32_t _edata;
 203:startup_gcc.c **** extern uint32_t _bss;
 204:startup_gcc.c **** extern uint32_t _ebss;
 205:startup_gcc.c **** 
ARM GAS  C:\Users\Diogo\AppData\Local\Temp\cciwJ6rh.s 			page 5


 206:startup_gcc.c **** //*****************************************************************************
 207:startup_gcc.c **** //
 208:startup_gcc.c **** // This is the code that gets called when the processor first starts execution
 209:startup_gcc.c **** // following a reset event.  Only the absolutely necessary set is performed,
 210:startup_gcc.c **** // after which the application supplied entry() routine is called.  Any fancy
 211:startup_gcc.c **** // actions (such as making decisions based on the reset cause register, and
 212:startup_gcc.c **** // resetting the bits in that register) are left solely in the hands of the
 213:startup_gcc.c **** // application.
 214:startup_gcc.c **** //
 215:startup_gcc.c **** //*****************************************************************************
 216:startup_gcc.c **** void
 217:startup_gcc.c **** ResetISR(void)
 218:startup_gcc.c **** {
 219:startup_gcc.c ****     uint32_t *pui32Src, *pui32Dest;
 220:startup_gcc.c **** 
 221:startup_gcc.c ****     //
 222:startup_gcc.c ****     // Copy the data segment initializers from flash to SRAM.
 223:startup_gcc.c ****     //
 224:startup_gcc.c ****     pui32Src = &_etext;
 225:startup_gcc.c ****     for(pui32Dest = &_data; pui32Dest < &_edata; )
 226:startup_gcc.c ****     {
 227:startup_gcc.c ****         *pui32Dest++ = *pui32Src++;
 228:startup_gcc.c ****     }
 229:startup_gcc.c **** 
 230:startup_gcc.c ****     //
 231:startup_gcc.c ****     // Zero fill the bss segment.
 232:startup_gcc.c ****     //
 233:startup_gcc.c ****     __asm("    ldr     r0, =_bss\n"
 234:startup_gcc.c ****           "    ldr     r1, =_ebss\n"
 235:startup_gcc.c ****           "    mov     r2, #0\n"
 236:startup_gcc.c ****           "    .thumb_func\n"
 237:startup_gcc.c ****           "zero_loop:\n"
 238:startup_gcc.c ****           "        cmp     r0, r1\n"
 239:startup_gcc.c ****           "        it      lt\n"
 240:startup_gcc.c ****           "        strlt   r2, [r0], #4\n"
 241:startup_gcc.c ****           "        blt     zero_loop");
 242:startup_gcc.c **** 
 243:startup_gcc.c ****     //
 244:startup_gcc.c ****     // Enable the floating-point unit.  This must be done here to handle the
 245:startup_gcc.c ****     // case where main() uses floating-point and the function prologue saves
 246:startup_gcc.c ****     // floating-point registers (which will fault if floating-point is not
 247:startup_gcc.c ****     // enabled).  Any configuration of the floating-point unit using DriverLib
 248:startup_gcc.c ****     // APIs must be done here prior to the floating-point unit being enabled.
 249:startup_gcc.c ****     //
 250:startup_gcc.c ****     // Note that this does not use DriverLib since it might not be included in
 251:startup_gcc.c ****     // this project.
 252:startup_gcc.c ****     //
 253:startup_gcc.c ****     HWREG(NVIC_CPAC) = ((HWREG(NVIC_CPAC) &
 254:startup_gcc.c ****                          ~(NVIC_CPAC_CP10_M | NVIC_CPAC_CP11_M)) |
 255:startup_gcc.c ****                         NVIC_CPAC_CP10_FULL | NVIC_CPAC_CP11_FULL);
 256:startup_gcc.c **** 
 257:startup_gcc.c ****     //
 258:startup_gcc.c ****     // Call the application's entry point.
 259:startup_gcc.c ****     //
 260:startup_gcc.c ****     main();
 261:startup_gcc.c **** }
 262:startup_gcc.c **** 
ARM GAS  C:\Users\Diogo\AppData\Local\Temp\cciwJ6rh.s 			page 6


 263:startup_gcc.c **** //*****************************************************************************
 264:startup_gcc.c **** //
 265:startup_gcc.c **** // This is the code that gets called when the processor receives a NMI.  This
 266:startup_gcc.c **** // simply enters an infinite loop, preserving the system state for examination
 267:startup_gcc.c **** // by a debugger.
 268:startup_gcc.c **** //
 269:startup_gcc.c **** //*****************************************************************************
 270:startup_gcc.c **** static void
 271:startup_gcc.c **** NmiSR(void)
 272:startup_gcc.c **** {
  24              		.loc 1 272 0
  25              		.cfi_startproc
  26              		@ Volatile: function does not return.
  27              		@ args = 0, pretend = 0, frame = 0
  28              		@ frame_needed = 0, uses_anonymous_args = 0
  29              		@ link register save eliminated.
  30              	.L2:
  31 0000 FEE7     		b	.L2
  32              		.cfi_endproc
  33              	.LFE1:
  34              		.size	NmiSR, .-NmiSR
  35              		.align	1
  36              		.syntax unified
  37              		.thumb
  38              		.thumb_func
  39              		.fpu softvfp
  40              		.type	FaultISR, %function
  41              	FaultISR:
  42              	.LFB2:
 273:startup_gcc.c ****     //
 274:startup_gcc.c ****     // Enter an infinite loop.
 275:startup_gcc.c ****     //
 276:startup_gcc.c ****     while(1)
 277:startup_gcc.c ****     {
 278:startup_gcc.c ****     }
 279:startup_gcc.c **** }
 280:startup_gcc.c **** 
 281:startup_gcc.c **** //*****************************************************************************
 282:startup_gcc.c **** //
 283:startup_gcc.c **** // This is the code that gets called when the processor receives a fault
 284:startup_gcc.c **** // interrupt.  This simply enters an infinite loop, preserving the system state
 285:startup_gcc.c **** // for examination by a debugger.
 286:startup_gcc.c **** //
 287:startup_gcc.c **** //*****************************************************************************
 288:startup_gcc.c **** static void
 289:startup_gcc.c **** FaultISR(void)
 290:startup_gcc.c **** {
  43              		.loc 1 290 0
  44              		.cfi_startproc
  45              		@ Volatile: function does not return.
  46              		@ args = 0, pretend = 0, frame = 0
  47              		@ frame_needed = 0, uses_anonymous_args = 0
  48              		@ link register save eliminated.
  49              	.L4:
  50 0002 FEE7     		b	.L4
  51              		.cfi_endproc
  52              	.LFE2:
ARM GAS  C:\Users\Diogo\AppData\Local\Temp\cciwJ6rh.s 			page 7


  53              		.size	FaultISR, .-FaultISR
  54              		.align	1
  55              		.syntax unified
  56              		.thumb
  57              		.thumb_func
  58              		.fpu softvfp
  59              		.type	IntDefaultHandler, %function
  60              	IntDefaultHandler:
  61              	.LFB3:
 291:startup_gcc.c ****     //
 292:startup_gcc.c ****     // Enter an infinite loop.
 293:startup_gcc.c ****     //
 294:startup_gcc.c ****     while(1)
 295:startup_gcc.c ****     {
 296:startup_gcc.c ****     }
 297:startup_gcc.c **** }
 298:startup_gcc.c **** 
 299:startup_gcc.c **** //*****************************************************************************
 300:startup_gcc.c **** //
 301:startup_gcc.c **** // This is the code that gets called when the processor receives an unexpected
 302:startup_gcc.c **** // interrupt.  This simply enters an infinite loop, preserving the system state
 303:startup_gcc.c **** // for examination by a debugger.
 304:startup_gcc.c **** //
 305:startup_gcc.c **** //*****************************************************************************
 306:startup_gcc.c **** static void
 307:startup_gcc.c **** IntDefaultHandler(void)
 308:startup_gcc.c **** {
  62              		.loc 1 308 0
  63              		.cfi_startproc
  64              		@ Volatile: function does not return.
  65              		@ args = 0, pretend = 0, frame = 0
  66              		@ frame_needed = 0, uses_anonymous_args = 0
  67              		@ link register save eliminated.
  68              	.L6:
  69 0004 FEE7     		b	.L6
  70              		.cfi_endproc
  71              	.LFE3:
  72              		.size	IntDefaultHandler, .-IntDefaultHandler
  73              		.align	1
  74              		.global	ResetISR
  75              		.syntax unified
  76              		.thumb
  77              		.thumb_func
  78              		.fpu softvfp
  79              		.type	ResetISR, %function
  80              	ResetISR:
  81              	.LFB0:
 218:startup_gcc.c ****     uint32_t *pui32Src, *pui32Dest;
  82              		.loc 1 218 0
  83              		.cfi_startproc
  84              		@ args = 0, pretend = 0, frame = 0
  85              		@ frame_needed = 0, uses_anonymous_args = 0
 218:startup_gcc.c ****     uint32_t *pui32Src, *pui32Dest;
  86              		.loc 1 218 0
  87 0006 08B5     		push	{r3, lr}
  88              	.LCFI0:
  89              		.cfi_def_cfa_offset 8
ARM GAS  C:\Users\Diogo\AppData\Local\Temp\cciwJ6rh.s 			page 8


  90              		.cfi_offset 3, -8
  91              		.cfi_offset 14, -4
  92              	.LVL0:
 225:startup_gcc.c ****     {
  93              		.loc 1 225 0
  94 0008 114A     		ldr	r2, .L11
  95 000a 124B     		ldr	r3, .L11+4
  96 000c 9A42     		cmp	r2, r3
  97 000e 0DD2     		bcs	.L8
  98 0010 1346     		mov	r3, r2
  99 0012 0432     		adds	r2, r2, #4
 100 0014 1049     		ldr	r1, .L11+8
 101 0016 891A     		subs	r1, r1, r2
 102 0018 21F00301 		bic	r1, r1, #3
 103 001c 1144     		add	r1, r1, r2
 224:startup_gcc.c ****     for(pui32Dest = &_data; pui32Dest < &_edata; )
 104              		.loc 1 224 0
 105 001e 0F4A     		ldr	r2, .L11+12
 106              	.LVL1:
 107              	.L9:
 227:startup_gcc.c ****     }
 108              		.loc 1 227 0
 109 0020 52F8040B 		ldr	r0, [r2], #4
 110              	.LVL2:
 111 0024 43F8040B 		str	r0, [r3], #4
 112              	.LVL3:
 225:startup_gcc.c ****     {
 113              		.loc 1 225 0
 114 0028 8B42     		cmp	r3, r1
 115 002a F9D1     		bne	.L9
 116              	.LVL4:
 117              	.L8:
 233:startup_gcc.c ****           "    ldr     r1, =_ebss\n"
 118              		.loc 1 233 0
 119              		.syntax unified
 120              	@ 233 "startup_gcc.c" 1
 121 002c 0D48     		    ldr     r0, =_bss
 122 002e 0E49     	    ldr     r1, =_ebss
 123 0030 4FF00002 	    mov     r2, #0
 124              	    .thumb_func
 125              	zero_loop:
 126 0034 8842     	        cmp     r0, r1
 127 0036 B8BF     	        it      lt
 128 0038 40F8042B 	        strlt   r2, [r0], #4
 129 003c FADB     	        blt     zero_loop
 130              	@ 0 "" 2
 253:startup_gcc.c ****                          ~(NVIC_CPAC_CP10_M | NVIC_CPAC_CP11_M)) |
 131              		.loc 1 253 0
 132              		.thumb
 133              		.syntax unified
 134 003e 084A     		ldr	r2, .L11+16
 135 0040 1368     		ldr	r3, [r2]
 255:startup_gcc.c **** 
 136              		.loc 1 255 0
 137 0042 43F47003 		orr	r3, r3, #15728640
 253:startup_gcc.c ****                          ~(NVIC_CPAC_CP10_M | NVIC_CPAC_CP11_M)) |
 138              		.loc 1 253 0
ARM GAS  C:\Users\Diogo\AppData\Local\Temp\cciwJ6rh.s 			page 9


 139 0046 1360     		str	r3, [r2]
 260:startup_gcc.c **** }
 140              		.loc 1 260 0
 141 0048 FFF7FEFF 		bl	main
 142              	.LVL5:
 261:startup_gcc.c **** 
 143              		.loc 1 261 0
 144 004c 08BD     		pop	{r3, pc}
 145              	.L12:
 146 004e 00BF     		.align	2
 147              	.L11:
 148 0050 00000000 		.word	_data
 149 0054 00000000 		.word	_edata
 150 0058 03000000 		.word	_edata+3
 151 005c 00000000 		.word	_etext
 152 0060 88ED00E0 		.word	-536810104
 153              		.cfi_endproc
 154              	.LFE0:
 155              		.size	ResetISR, .-ResetISR
 156              		.global	g_pfnVectors
 157              		.bss
 158              		.align	2
 159              		.type	pui32Stack, %object
 160              		.size	pui32Stack, 512
 161              	pui32Stack:
 162 0000 00000000 		.space	512
 162      00000000 
 162      00000000 
 162      00000000 
 162      00000000 
 163              		.section	.isr_vector,"a",%progbits
 164              		.align	2
 165              		.type	g_pfnVectors, %object
 166              		.size	g_pfnVectors, 512
 167              	g_pfnVectors:
 168 0000 00020000 		.word	pui32Stack+512
 169 0004 00000000 		.word	ResetISR
 170 0008 00000000 		.word	NmiSR
 171 000c 00000000 		.word	FaultISR
 172 0010 00000000 		.word	IntDefaultHandler
 173 0014 00000000 		.word	IntDefaultHandler
 174 0018 00000000 		.word	IntDefaultHandler
 175 001c 00000000 		.word	0
 176 0020 00000000 		.word	0
 177 0024 00000000 		.word	0
 178 0028 00000000 		.word	0
 179 002c 00000000 		.word	IntDefaultHandler
 180 0030 00000000 		.word	IntDefaultHandler
 181 0034 00000000 		.word	0
 182 0038 00000000 		.word	IntDefaultHandler
 183 003c 00000000 		.word	IntDefaultHandler
 184 0040 00000000 		.word	IntDefaultHandler
 185 0044 00000000 		.word	IntDefaultHandler
 186 0048 00000000 		.word	IntDefaultHandler
 187 004c 00000000 		.word	IntDefaultHandler
 188 0050 00000000 		.word	IntDefaultHandler
 189 0054 00000000 		.word	IntDefaultHandler
ARM GAS  C:\Users\Diogo\AppData\Local\Temp\cciwJ6rh.s 			page 10


 190 0058 00000000 		.word	IntDefaultHandler
 191 005c 00000000 		.word	IntDefaultHandler
 192 0060 00000000 		.word	IntDefaultHandler
 193 0064 00000000 		.word	IntDefaultHandler
 194 0068 00000000 		.word	IntDefaultHandler
 195 006c 00000000 		.word	IntDefaultHandler
 196 0070 00000000 		.word	IntDefaultHandler
 197 0074 00000000 		.word	IntDefaultHandler
 198 0078 00000000 		.word	IntDefaultHandler
 199 007c 00000000 		.word	IntDefaultHandler
 200 0080 00000000 		.word	IntDefaultHandler
 201 0084 00000000 		.word	IntDefaultHandler
 202 0088 00000000 		.word	IntDefaultHandler
 203 008c 00000000 		.word	IntDefaultHandler
 204 0090 00000000 		.word	IntDefaultHandler
 205 0094 00000000 		.word	IntDefaultHandler
 206 0098 00000000 		.word	IntDefaultHandler
 207 009c 00000000 		.word	IntDefaultHandler
 208 00a0 00000000 		.word	IntDefaultHandler
 209 00a4 00000000 		.word	IntDefaultHandler
 210 00a8 00000000 		.word	IntDefaultHandler
 211 00ac 00000000 		.word	IntDefaultHandler
 212 00b0 00000000 		.word	IntDefaultHandler
 213 00b4 00000000 		.word	IntDefaultHandler
 214 00b8 00000000 		.word	IntDefaultHandler
 215 00bc 00000000 		.word	IntDefaultHandler
 216 00c0 00000000 		.word	IntDefaultHandler
 217 00c4 00000000 		.word	IntDefaultHandler
 218 00c8 00000000 		.word	IntDefaultHandler
 219 00cc 00000000 		.word	IntDefaultHandler
 220 00d0 00000000 		.word	IntDefaultHandler
 221 00d4 00000000 		.word	IntDefaultHandler
 222 00d8 00000000 		.word	IntDefaultHandler
 223 00dc 00000000 		.word	IntDefaultHandler
 224 00e0 00000000 		.word	IntDefaultHandler
 225 00e4 00000000 		.word	IntDefaultHandler
 226 00e8 00000000 		.word	IntDefaultHandler
 227 00ec 00000000 		.word	IntDefaultHandler
 228 00f0 00000000 		.word	IntDefaultHandler
 229 00f4 00000000 		.word	IntDefaultHandler
 230 00f8 00000000 		.word	IntDefaultHandler
 231 00fc 00000000 		.word	IntDefaultHandler
 232 0100 00000000 		.word	IntDefaultHandler
 233 0104 00000000 		.word	IntDefaultHandler
 234 0108 00000000 		.word	IntDefaultHandler
 235 010c 00000000 		.word	IntDefaultHandler
 236 0110 00000000 		.word	IntDefaultHandler
 237 0114 00000000 		.word	IntDefaultHandler
 238 0118 00000000 		.word	IntDefaultHandler
 239 011c 00000000 		.word	IntDefaultHandler
 240 0120 00000000 		.word	IntDefaultHandler
 241 0124 00000000 		.word	IntDefaultHandler
 242 0128 00000000 		.word	IntDefaultHandler
 243 012c 00000000 		.word	IntDefaultHandler
 244 0130 00000000 		.word	IntDefaultHandler
 245 0134 00000000 		.word	IntDefaultHandler
 246 0138 00000000 		.word	IntDefaultHandler
ARM GAS  C:\Users\Diogo\AppData\Local\Temp\cciwJ6rh.s 			page 11


 247 013c 00000000 		.word	IntDefaultHandler
 248 0140 00000000 		.word	IntDefaultHandler
 249 0144 00000000 		.word	IntDefaultHandler
 250 0148 00000000 		.word	IntDefaultHandler
 251 014c 00000000 		.word	IntDefaultHandler
 252 0150 00000000 		.word	0
 253 0154 00000000 		.word	0
 254 0158 00000000 		.word	IntDefaultHandler
 255 015c 00000000 		.word	IntDefaultHandler
 256 0160 00000000 		.word	IntDefaultHandler
 257 0164 00000000 		.word	IntDefaultHandler
 258 0168 00000000 		.word	0
 259 016c 00000000 		.word	IntDefaultHandler
 260 0170 00000000 		.word	IntDefaultHandler
 261 0174 00000000 		.word	IntDefaultHandler
 262 0178 00000000 		.word	IntDefaultHandler
 263 017c 00000000 		.word	IntDefaultHandler
 264 0180 00000000 		.word	IntDefaultHandler
 265 0184 00000000 		.word	IntDefaultHandler
 266 0188 00000000 		.word	IntDefaultHandler
 267 018c 00000000 		.word	IntDefaultHandler
 268 0190 00000000 		.word	IntDefaultHandler
 269 0194 00000000 		.word	IntDefaultHandler
 270 0198 00000000 		.word	IntDefaultHandler
 271 019c 00000000 		.word	IntDefaultHandler
 272 01a0 00000000 		.word	IntDefaultHandler
 273 01a4 00000000 		.word	IntDefaultHandler
 274 01a8 00000000 		.word	IntDefaultHandler
 275 01ac 00000000 		.word	IntDefaultHandler
 276 01b0 00000000 		.word	IntDefaultHandler
 277 01b4 00000000 		.word	IntDefaultHandler
 278 01b8 00000000 		.word	IntDefaultHandler
 279 01bc 00000000 		.word	IntDefaultHandler
 280 01c0 00000000 		.word	IntDefaultHandler
 281 01c4 00000000 		.word	IntDefaultHandler
 282 01c8 00000000 		.word	IntDefaultHandler
 283 01cc 00000000 		.word	IntDefaultHandler
 284 01d0 00000000 		.word	IntDefaultHandler
 285 01d4 00000000 		.word	IntDefaultHandler
 286 01d8 00000000 		.word	IntDefaultHandler
 287 01dc 00000000 		.word	IntDefaultHandler
 288 01e0 00000000 		.word	IntDefaultHandler
 289 01e4 00000000 		.word	IntDefaultHandler
 290 01e8 00000000 		.word	IntDefaultHandler
 291 01ec 00000000 		.word	IntDefaultHandler
 292 01f0 00000000 		.word	IntDefaultHandler
 293 01f4 00000000 		.word	IntDefaultHandler
 294 01f8 00000000 		.word	IntDefaultHandler
 295 01fc 00000000 		.word	IntDefaultHandler
 296              		.text
 297              	.Letext0:
 298              		.file 2 "c:\\program files (x86)\\gnu tools arm embedded\\7 2018-q2-update\\arm-none-eabi\\include
 299              		.file 3 "c:\\program files (x86)\\gnu tools arm embedded\\7 2018-q2-update\\arm-none-eabi\\include