ARM GAS  C:\Users\Diogo\AppData\Local\Temp\ccjiAD3E.s 			page 1


   1              		.cpu cortex-m4
   2              		.eabi_attribute 20, 1
   3              		.eabi_attribute 21, 1
   4              		.eabi_attribute 23, 3
   5              		.eabi_attribute 24, 1
   6              		.eabi_attribute 25, 1
   7              		.eabi_attribute 26, 1
   8              		.eabi_attribute 30, 1
   9              		.eabi_attribute 34, 1
  10              		.eabi_attribute 18, 4
  11              		.file	"uartstdio.c"
  12              		.text
  13              	.Ltext0:
  14              		.cfi_sections	.debug_frame
  15              		.align	1
  16              		.global	UARTStdioConfig
  17              		.syntax unified
  18              		.thumb
  19              		.thumb_func
  20              		.fpu softvfp
  21              		.type	UARTStdioConfig, %function
  22              	UARTStdioConfig:
  23              	.LFB0:
  24              		.file 1 "uartstdio.c"
   1:uartstdio.c   **** //*****************************************************************************
   2:uartstdio.c   **** //
   3:uartstdio.c   **** // uartstdio.c - Utility driver to provide simple UART console functions.
   4:uartstdio.c   **** //
   5:uartstdio.c   **** // Copyright (c) 2007-2014 Texas Instruments Incorporated.  All rights reserved.
   6:uartstdio.c   **** // Software License Agreement
   7:uartstdio.c   **** // 
   8:uartstdio.c   **** // Texas Instruments (TI) is supplying this software for use solely and
   9:uartstdio.c   **** // exclusively on TI's microcontroller products. The software is owned by
  10:uartstdio.c   **** // TI and/or its suppliers, and is protected under applicable copyright
  11:uartstdio.c   **** // laws. You may not combine this software with "viral" open-source
  12:uartstdio.c   **** // software in order to form a larger program.
  13:uartstdio.c   **** // 
  14:uartstdio.c   **** // THIS SOFTWARE IS PROVIDED "AS IS" AND WITH ALL FAULTS.
  15:uartstdio.c   **** // NO WARRANTIES, WHETHER EXPRESS, IMPLIED OR STATUTORY, INCLUDING, BUT
  16:uartstdio.c   **** // NOT LIMITED TO, IMPLIED WARRANTIES OF MERCHANTABILITY AND FITNESS FOR
  17:uartstdio.c   **** // A PARTICULAR PURPOSE APPLY TO THIS SOFTWARE. TI SHALL NOT, UNDER ANY
  18:uartstdio.c   **** // CIRCUMSTANCES, BE LIABLE FOR SPECIAL, INCIDENTAL, OR CONSEQUENTIAL
  19:uartstdio.c   **** // DAMAGES, FOR ANY REASON WHATSOEVER.
  20:uartstdio.c   **** // 
  21:uartstdio.c   **** // This is part of revision 2.1.0.12573 of the Tiva Utility Library.
  22:uartstdio.c   **** //
  23:uartstdio.c   **** //*****************************************************************************
  24:uartstdio.c   **** 
  25:uartstdio.c   **** #include <stdbool.h>
  26:uartstdio.c   **** #include <stdint.h>
  27:uartstdio.c   **** #include <stdarg.h>
  28:uartstdio.c   **** #include <hw_ints.h>
  29:uartstdio.c   **** #include "hw_memmap.h"
  30:uartstdio.c   **** #include "hw_types.h"
  31:uartstdio.c   **** #include "hw_uart.h"
  32:uartstdio.c   **** #include "debug.h"
  33:uartstdio.c   **** #include "interrupt.h"
ARM GAS  C:\Users\Diogo\AppData\Local\Temp\ccjiAD3E.s 			page 2


  34:uartstdio.c   **** #include "driverlib\rom.h"
  35:uartstdio.c   **** #include "driverlib\rom_map.h"
  36:uartstdio.c   **** #include "driverlib\sysctl.h"
  37:uartstdio.c   **** #include "driverlib\uart.h"
  38:uartstdio.c   **** #include "utils\uartstdio.h"
  39:uartstdio.c   **** 
  40:uartstdio.c   **** //*****************************************************************************
  41:uartstdio.c   **** //
  42:uartstdio.c   **** //! \addtogroup uartstdio_api
  43:uartstdio.c   **** //! @{
  44:uartstdio.c   **** //
  45:uartstdio.c   **** //*****************************************************************************
  46:uartstdio.c   **** 
  47:uartstdio.c   **** //*****************************************************************************
  48:uartstdio.c   **** //
  49:uartstdio.c   **** // If buffered mode is defined, set aside RX and TX buffers and read/write
  50:uartstdio.c   **** // pointers to control them.
  51:uartstdio.c   **** //
  52:uartstdio.c   **** //*****************************************************************************
  53:uartstdio.c   **** #ifdef UART_BUFFERED
  54:uartstdio.c   **** 
  55:uartstdio.c   **** //*****************************************************************************
  56:uartstdio.c   **** //
  57:uartstdio.c   **** // This global controls whether or not we are echoing characters back to the
  58:uartstdio.c   **** // transmitter.  By default, echo is enabled but if using this module as a
  59:uartstdio.c   **** // convenient method of implementing a buffered serial interface over which
  60:uartstdio.c   **** // you will be running an application protocol, you are likely to want to
  61:uartstdio.c   **** // disable echo by calling UARTEchoSet(false).
  62:uartstdio.c   **** //
  63:uartstdio.c   **** //*****************************************************************************
  64:uartstdio.c   **** static bool g_bDisableEcho;
  65:uartstdio.c   **** 
  66:uartstdio.c   **** //*****************************************************************************
  67:uartstdio.c   **** //
  68:uartstdio.c   **** // Output ring buffer.  Buffer is full if g_ui32UARTTxReadIndex is one ahead of
  69:uartstdio.c   **** // g_ui32UARTTxWriteIndex.  Buffer is empty if the two indices are the same.
  70:uartstdio.c   **** //
  71:uartstdio.c   **** //*****************************************************************************
  72:uartstdio.c   **** static unsigned char g_pcUARTTxBuffer[UART_TX_BUFFER_SIZE];
  73:uartstdio.c   **** static volatile uint32_t g_ui32UARTTxWriteIndex = 0;
  74:uartstdio.c   **** static volatile uint32_t g_ui32UARTTxReadIndex = 0;
  75:uartstdio.c   **** 
  76:uartstdio.c   **** //*****************************************************************************
  77:uartstdio.c   **** //
  78:uartstdio.c   **** // Input ring buffer.  Buffer is full if g_ui32UARTTxReadIndex is one ahead of
  79:uartstdio.c   **** // g_ui32UARTTxWriteIndex.  Buffer is empty if the two indices are the same.
  80:uartstdio.c   **** //
  81:uartstdio.c   **** //*****************************************************************************
  82:uartstdio.c   **** static unsigned char g_pcUARTRxBuffer[UART_RX_BUFFER_SIZE];
  83:uartstdio.c   **** static volatile uint32_t g_ui32UARTRxWriteIndex = 0;
  84:uartstdio.c   **** static volatile uint32_t g_ui32UARTRxReadIndex = 0;
  85:uartstdio.c   **** 
  86:uartstdio.c   **** //*****************************************************************************
  87:uartstdio.c   **** //
  88:uartstdio.c   **** // Macros to determine number of free and used bytes in the transmit buffer.
  89:uartstdio.c   **** //
  90:uartstdio.c   **** //*****************************************************************************
ARM GAS  C:\Users\Diogo\AppData\Local\Temp\ccjiAD3E.s 			page 3


  91:uartstdio.c   **** #define TX_BUFFER_USED          (GetBufferCount(&g_ui32UARTTxReadIndex,  \
  92:uartstdio.c   ****                                                 &g_ui32UARTTxWriteIndex, \
  93:uartstdio.c   ****                                                 UART_TX_BUFFER_SIZE))
  94:uartstdio.c   **** #define TX_BUFFER_FREE          (UART_TX_BUFFER_SIZE - TX_BUFFER_USED)
  95:uartstdio.c   **** #define TX_BUFFER_EMPTY         (IsBufferEmpty(&g_ui32UARTTxReadIndex,   \
  96:uartstdio.c   ****                                                &g_ui32UARTTxWriteIndex))
  97:uartstdio.c   **** #define TX_BUFFER_FULL          (IsBufferFull(&g_ui32UARTTxReadIndex,  \
  98:uartstdio.c   ****                                               &g_ui32UARTTxWriteIndex, \
  99:uartstdio.c   ****                                               UART_TX_BUFFER_SIZE))
 100:uartstdio.c   **** #define ADVANCE_TX_BUFFER_INDEX(Index) \
 101:uartstdio.c   ****                                 (Index) = ((Index) + 1) % UART_TX_BUFFER_SIZE
 102:uartstdio.c   **** 
 103:uartstdio.c   **** //*****************************************************************************
 104:uartstdio.c   **** //
 105:uartstdio.c   **** // Macros to determine number of free and used bytes in the receive buffer.
 106:uartstdio.c   **** //
 107:uartstdio.c   **** //*****************************************************************************
 108:uartstdio.c   **** #define RX_BUFFER_USED          (GetBufferCount(&g_ui32UARTRxReadIndex,  \
 109:uartstdio.c   ****                                                 &g_ui32UARTRxWriteIndex, \
 110:uartstdio.c   ****                                                 UART_RX_BUFFER_SIZE))
 111:uartstdio.c   **** #define RX_BUFFER_FREE          (UART_RX_BUFFER_SIZE - RX_BUFFER_USED)
 112:uartstdio.c   **** #define RX_BUFFER_EMPTY         (IsBufferEmpty(&g_ui32UARTRxReadIndex,   \
 113:uartstdio.c   ****                                                &g_ui32UARTRxWriteIndex))
 114:uartstdio.c   **** #define RX_BUFFER_FULL          (IsBufferFull(&g_ui32UARTRxReadIndex,  \
 115:uartstdio.c   ****                                               &g_ui32UARTRxWriteIndex, \
 116:uartstdio.c   ****                                               UART_RX_BUFFER_SIZE))
 117:uartstdio.c   **** #define ADVANCE_RX_BUFFER_INDEX(Index) \
 118:uartstdio.c   ****                                 (Index) = ((Index) + 1) % UART_RX_BUFFER_SIZE
 119:uartstdio.c   **** #endif
 120:uartstdio.c   **** 
 121:uartstdio.c   **** //*****************************************************************************
 122:uartstdio.c   **** //
 123:uartstdio.c   **** // The base address of the chosen UART.
 124:uartstdio.c   **** //
 125:uartstdio.c   **** //*****************************************************************************
 126:uartstdio.c   **** static uint32_t g_ui32Base = 0;
 127:uartstdio.c   **** 
 128:uartstdio.c   **** //*****************************************************************************
 129:uartstdio.c   **** //
 130:uartstdio.c   **** // A mapping from an integer between 0 and 15 to its ASCII character
 131:uartstdio.c   **** // equivalent.
 132:uartstdio.c   **** //
 133:uartstdio.c   **** //*****************************************************************************
 134:uartstdio.c   **** static const char * const g_pcHex = "0123456789abcdef";
 135:uartstdio.c   **** 
 136:uartstdio.c   **** //*****************************************************************************
 137:uartstdio.c   **** //
 138:uartstdio.c   **** // The list of possible base addresses for the console UART.
 139:uartstdio.c   **** //
 140:uartstdio.c   **** //*****************************************************************************
 141:uartstdio.c   **** static const uint32_t g_ui32UARTBase[3] =
 142:uartstdio.c   **** {
 143:uartstdio.c   ****     UART0_BASE, UART1_BASE, UART2_BASE
 144:uartstdio.c   **** };
 145:uartstdio.c   **** 
 146:uartstdio.c   **** #ifdef UART_BUFFERED
 147:uartstdio.c   **** //*****************************************************************************
ARM GAS  C:\Users\Diogo\AppData\Local\Temp\ccjiAD3E.s 			page 4


 148:uartstdio.c   **** //
 149:uartstdio.c   **** // The list of possible interrupts for the console UART.
 150:uartstdio.c   **** //
 151:uartstdio.c   **** //*****************************************************************************
 152:uartstdio.c   **** static const uint32_t g_ui32UARTInt[3] =
 153:uartstdio.c   **** {
 154:uartstdio.c   ****     INT_UART0, INT_UART1, INT_UART2
 155:uartstdio.c   **** };
 156:uartstdio.c   **** 
 157:uartstdio.c   **** //*****************************************************************************
 158:uartstdio.c   **** //
 159:uartstdio.c   **** // The port number in use.
 160:uartstdio.c   **** //
 161:uartstdio.c   **** //*****************************************************************************
 162:uartstdio.c   **** static uint32_t g_ui32PortNum;
 163:uartstdio.c   **** #endif
 164:uartstdio.c   **** 
 165:uartstdio.c   **** //*****************************************************************************
 166:uartstdio.c   **** //
 167:uartstdio.c   **** // The list of UART peripherals.
 168:uartstdio.c   **** //
 169:uartstdio.c   **** //*****************************************************************************
 170:uartstdio.c   **** static const uint32_t g_ui32UARTPeriph[3] =
 171:uartstdio.c   **** {
 172:uartstdio.c   ****     SYSCTL_PERIPH_UART0, SYSCTL_PERIPH_UART1, SYSCTL_PERIPH_UART2
 173:uartstdio.c   **** };
 174:uartstdio.c   **** 
 175:uartstdio.c   **** //*****************************************************************************
 176:uartstdio.c   **** //
 177:uartstdio.c   **** //! Determines whether the ring buffer whose pointers and size are provided
 178:uartstdio.c   **** //! is full or not.
 179:uartstdio.c   **** //!
 180:uartstdio.c   **** //! \param pui32Read points to the read index for the buffer.
 181:uartstdio.c   **** //! \param pui32Write points to the write index for the buffer.
 182:uartstdio.c   **** //! \param ui32Size is the size of the buffer in bytes.
 183:uartstdio.c   **** //!
 184:uartstdio.c   **** //! This function is used to determine whether or not a given ring buffer is
 185:uartstdio.c   **** //! full.  The structure of the code is specifically to ensure that we do not
 186:uartstdio.c   **** //! see warnings from the compiler related to the order of volatile accesses
 187:uartstdio.c   **** //! being undefined.
 188:uartstdio.c   **** //!
 189:uartstdio.c   **** //! \return Returns \b true if the buffer is full or \b false otherwise.
 190:uartstdio.c   **** //
 191:uartstdio.c   **** //*****************************************************************************
 192:uartstdio.c   **** #ifdef UART_BUFFERED
 193:uartstdio.c   **** static bool
 194:uartstdio.c   **** IsBufferFull(volatile uint32_t *pui32Read,
 195:uartstdio.c   ****              volatile uint32_t *pui32Write, uint32_t ui32Size)
 196:uartstdio.c   **** {
 197:uartstdio.c   ****     uint32_t ui32Write;
 198:uartstdio.c   ****     uint32_t ui32Read;
 199:uartstdio.c   **** 
 200:uartstdio.c   ****     ui32Write = *pui32Write;
 201:uartstdio.c   ****     ui32Read = *pui32Read;
 202:uartstdio.c   **** 
 203:uartstdio.c   ****     return((((ui32Write + 1) % ui32Size) == ui32Read) ? true : false);
 204:uartstdio.c   **** }
ARM GAS  C:\Users\Diogo\AppData\Local\Temp\ccjiAD3E.s 			page 5


 205:uartstdio.c   **** #endif
 206:uartstdio.c   **** 
 207:uartstdio.c   **** //*****************************************************************************
 208:uartstdio.c   **** //
 209:uartstdio.c   **** //! Determines whether the ring buffer whose pointers and size are provided
 210:uartstdio.c   **** //! is empty or not.
 211:uartstdio.c   **** //!
 212:uartstdio.c   **** //! \param pui32Read points to the read index for the buffer.
 213:uartstdio.c   **** //! \param pui32Write points to the write index for the buffer.
 214:uartstdio.c   **** //!
 215:uartstdio.c   **** //! This function is used to determine whether or not a given ring buffer is
 216:uartstdio.c   **** //! empty.  The structure of the code is specifically to ensure that we do not
 217:uartstdio.c   **** //! see warnings from the compiler related to the order of volatile accesses
 218:uartstdio.c   **** //! being undefined.
 219:uartstdio.c   **** //!
 220:uartstdio.c   **** //! \return Returns \b true if the buffer is empty or \b false otherwise.
 221:uartstdio.c   **** //
 222:uartstdio.c   **** //*****************************************************************************
 223:uartstdio.c   **** #ifdef UART_BUFFERED
 224:uartstdio.c   **** static bool
 225:uartstdio.c   **** IsBufferEmpty(volatile uint32_t *pui32Read,
 226:uartstdio.c   ****               volatile uint32_t *pui32Write)
 227:uartstdio.c   **** {
 228:uartstdio.c   ****     uint32_t ui32Write;
 229:uartstdio.c   ****     uint32_t ui32Read;
 230:uartstdio.c   **** 
 231:uartstdio.c   ****     ui32Write = *pui32Write;
 232:uartstdio.c   ****     ui32Read = *pui32Read;
 233:uartstdio.c   **** 
 234:uartstdio.c   ****     return((ui32Write == ui32Read) ? true : false);
 235:uartstdio.c   **** }
 236:uartstdio.c   **** #endif
 237:uartstdio.c   **** 
 238:uartstdio.c   **** //*****************************************************************************
 239:uartstdio.c   **** //
 240:uartstdio.c   **** //! Determines the number of bytes of data contained in a ring buffer.
 241:uartstdio.c   **** //!
 242:uartstdio.c   **** //! \param pui32Read points to the read index for the buffer.
 243:uartstdio.c   **** //! \param pui32Write points to the write index for the buffer.
 244:uartstdio.c   **** //! \param ui32Size is the size of the buffer in bytes.
 245:uartstdio.c   **** //!
 246:uartstdio.c   **** //! This function is used to determine how many bytes of data a given ring
 247:uartstdio.c   **** //! buffer currently contains.  The structure of the code is specifically to
 248:uartstdio.c   **** //! ensure that we do not see warnings from the compiler related to the order
 249:uartstdio.c   **** //! of volatile accesses being undefined.
 250:uartstdio.c   **** //!
 251:uartstdio.c   **** //! \return Returns the number of bytes of data currently in the buffer.
 252:uartstdio.c   **** //
 253:uartstdio.c   **** //*****************************************************************************
 254:uartstdio.c   **** #ifdef UART_BUFFERED
 255:uartstdio.c   **** static uint32_t
 256:uartstdio.c   **** GetBufferCount(volatile uint32_t *pui32Read,
 257:uartstdio.c   ****                volatile uint32_t *pui32Write, uint32_t ui32Size)
 258:uartstdio.c   **** {
 259:uartstdio.c   ****     uint32_t ui32Write;
 260:uartstdio.c   ****     uint32_t ui32Read;
 261:uartstdio.c   **** 
ARM GAS  C:\Users\Diogo\AppData\Local\Temp\ccjiAD3E.s 			page 6


 262:uartstdio.c   ****     ui32Write = *pui32Write;
 263:uartstdio.c   ****     ui32Read = *pui32Read;
 264:uartstdio.c   **** 
 265:uartstdio.c   ****     return((ui32Write >= ui32Read) ? (ui32Write - ui32Read) :
 266:uartstdio.c   ****            (ui32Size - (ui32Read - ui32Write)));
 267:uartstdio.c   **** }
 268:uartstdio.c   **** #endif
 269:uartstdio.c   **** 
 270:uartstdio.c   **** //*****************************************************************************
 271:uartstdio.c   **** //
 272:uartstdio.c   **** // Take as many bytes from the transmit buffer as we have space for and move
 273:uartstdio.c   **** // them into the UART transmit FIFO.
 274:uartstdio.c   **** //
 275:uartstdio.c   **** //*****************************************************************************
 276:uartstdio.c   **** #ifdef UART_BUFFERED
 277:uartstdio.c   **** static void
 278:uartstdio.c   **** UARTPrimeTransmit(uint32_t ui32Base)
 279:uartstdio.c   **** {
 280:uartstdio.c   ****     //
 281:uartstdio.c   ****     // Do we have any data to transmit?
 282:uartstdio.c   ****     //
 283:uartstdio.c   ****     if(!TX_BUFFER_EMPTY)
 284:uartstdio.c   ****     {
 285:uartstdio.c   ****         //
 286:uartstdio.c   ****         // Disable the UART interrupt.  If we don't do this there is a race
 287:uartstdio.c   ****         // condition which can cause the read index to be corrupted.
 288:uartstdio.c   ****         //
 289:uartstdio.c   ****         MAP_IntDisable(g_ui32UARTInt[g_ui32PortNum]);
 290:uartstdio.c   **** 
 291:uartstdio.c   ****         //
 292:uartstdio.c   ****         // Yes - take some characters out of the transmit buffer and feed
 293:uartstdio.c   ****         // them to the UART transmit FIFO.
 294:uartstdio.c   ****         //
 295:uartstdio.c   ****         while(MAP_UARTSpaceAvail(ui32Base) && !TX_BUFFER_EMPTY)
 296:uartstdio.c   ****         {
 297:uartstdio.c   ****             MAP_UARTCharPutNonBlocking(ui32Base,
 298:uartstdio.c   ****                                       g_pcUARTTxBuffer[g_ui32UARTTxReadIndex]);
 299:uartstdio.c   ****             ADVANCE_TX_BUFFER_INDEX(g_ui32UARTTxReadIndex);
 300:uartstdio.c   ****         }
 301:uartstdio.c   **** 
 302:uartstdio.c   ****         //
 303:uartstdio.c   ****         // Reenable the UART interrupt.
 304:uartstdio.c   ****         //
 305:uartstdio.c   ****         MAP_IntEnable(g_ui32UARTInt[g_ui32PortNum]);
 306:uartstdio.c   ****     }
 307:uartstdio.c   **** }
 308:uartstdio.c   **** #endif
 309:uartstdio.c   **** 
 310:uartstdio.c   **** //*****************************************************************************
 311:uartstdio.c   **** //
 312:uartstdio.c   **** //! Configures the UART console.
 313:uartstdio.c   **** //!
 314:uartstdio.c   **** //! \param ui32PortNum is the number of UART port to use for the serial console
 315:uartstdio.c   **** //! (0-2)
 316:uartstdio.c   **** //! \param ui32Baud is the bit rate that the UART is to be configured to use.
 317:uartstdio.c   **** //! \param ui32SrcClock is the frequency of the source clock for the UART
 318:uartstdio.c   **** //! module.
ARM GAS  C:\Users\Diogo\AppData\Local\Temp\ccjiAD3E.s 			page 7


 319:uartstdio.c   **** //!
 320:uartstdio.c   **** //! This function will configure the specified serial port to be used as a
 321:uartstdio.c   **** //! serial console.  The serial parameters are set to the baud rate
 322:uartstdio.c   **** //! specified by the \e ui32Baud parameter and use 8 bit, no parity, and 1 stop
 323:uartstdio.c   **** //! bit.
 324:uartstdio.c   **** //!
 325:uartstdio.c   **** //! This function must be called prior to using any of the other UART console
 326:uartstdio.c   **** //! functions: UARTprintf() or UARTgets().  This function assumes that the
 327:uartstdio.c   **** //! caller has previously configured the relevant UART pins for operation as a
 328:uartstdio.c   **** //! UART rather than as GPIOs.
 329:uartstdio.c   **** //!
 330:uartstdio.c   **** //! \return None.
 331:uartstdio.c   **** //
 332:uartstdio.c   **** //*****************************************************************************
 333:uartstdio.c   **** void
 334:uartstdio.c   **** UARTStdioConfig(uint32_t ui32PortNum, uint32_t ui32Baud, uint32_t ui32SrcClock)
 335:uartstdio.c   **** {
  25              		.loc 1 335 0
  26              		.cfi_startproc
  27              		@ args = 0, pretend = 0, frame = 0
  28              		@ frame_needed = 0, uses_anonymous_args = 0
  29              	.LVL0:
  30 0000 2DE9F041 		push	{r4, r5, r6, r7, r8, lr}
  31              	.LCFI0:
  32              		.cfi_def_cfa_offset 24
  33              		.cfi_offset 4, -24
  34              		.cfi_offset 5, -20
  35              		.cfi_offset 6, -16
  36              		.cfi_offset 7, -12
  37              		.cfi_offset 8, -8
  38              		.cfi_offset 14, -4
  39 0004 0446     		mov	r4, r0
  40 0006 8846     		mov	r8, r1
  41 0008 1746     		mov	r7, r2
 336:uartstdio.c   ****     //
 337:uartstdio.c   ****     // Check the arguments.
 338:uartstdio.c   ****     //
 339:uartstdio.c   ****     ASSERT((ui32PortNum == 0) || (ui32PortNum == 1) ||
  42              		.loc 1 339 0
  43 000a 0228     		cmp	r0, #2
  44 000c 21D8     		bhi	.L4
  45              	.LVL1:
  46              	.L2:
 340:uartstdio.c   ****            (ui32PortNum == 2));
 341:uartstdio.c   **** 
 342:uartstdio.c   **** #ifdef UART_BUFFERED
 343:uartstdio.c   ****     //
 344:uartstdio.c   ****     // In buffered mode, we only allow a single instance to be opened.
 345:uartstdio.c   ****     //
 346:uartstdio.c   ****     ASSERT(g_ui32Base == 0);
 347:uartstdio.c   **** #endif
 348:uartstdio.c   **** 
 349:uartstdio.c   ****     //
 350:uartstdio.c   ****     // Check to make sure the UART peripheral is present.
 351:uartstdio.c   ****     //
 352:uartstdio.c   ****     if(!MAP_SysCtlPeripheralPresent(g_ui32UARTPeriph[ui32PortNum]))
  47              		.loc 1 352 0
ARM GAS  C:\Users\Diogo\AppData\Local\Temp\ccjiAD3E.s 			page 8


  48 000e 144B     		ldr	r3, .L5
  49 0010 53F82460 		ldr	r6, [r3, r4, lsl #2]
  50 0014 134B     		ldr	r3, .L5+4
  51 0016 1B68     		ldr	r3, [r3]
  52 0018 1B69     		ldr	r3, [r3, #16]
  53 001a 3046     		mov	r0, r6
  54 001c 9847     		blx	r3
  55              	.LVL2:
  56 001e B0B1     		cbz	r0, .L1
 353:uartstdio.c   ****     {
 354:uartstdio.c   ****         return;
 355:uartstdio.c   ****     }
 356:uartstdio.c   **** 
 357:uartstdio.c   ****     //
 358:uartstdio.c   ****     // Select the base address of the UART.
 359:uartstdio.c   ****     //
 360:uartstdio.c   ****     g_ui32Base = g_ui32UARTBase[ui32PortNum];
  57              		.loc 1 360 0
  58 0020 114D     		ldr	r5, .L5+8
  59 0022 0F4B     		ldr	r3, .L5
  60 0024 03EB8404 		add	r4, r3, r4, lsl #2
  61              	.LVL3:
  62 0028 E368     		ldr	r3, [r4, #12]
  63 002a 2B60     		str	r3, [r5]
 361:uartstdio.c   **** 
 362:uartstdio.c   ****     //
 363:uartstdio.c   ****     // Enable the UART peripheral for use.
 364:uartstdio.c   ****     //
 365:uartstdio.c   ****     MAP_SysCtlPeripheralEnable(g_ui32UARTPeriph[ui32PortNum]);
  64              		.loc 1 365 0
  65 002c 0D4B     		ldr	r3, .L5+4
  66 002e 1B68     		ldr	r3, [r3]
  67 0030 9B69     		ldr	r3, [r3, #24]
  68 0032 3046     		mov	r0, r6
  69 0034 9847     		blx	r3
  70              	.LVL4:
 366:uartstdio.c   **** 
 367:uartstdio.c   ****     //
 368:uartstdio.c   ****     // Configure the UART for 115200, n, 8, 1
 369:uartstdio.c   ****     //
 370:uartstdio.c   ****     MAP_UARTConfigSetExpClk(g_ui32Base, ui32SrcClock, ui32Baud,
  71              		.loc 1 370 0
  72 0036 0D4C     		ldr	r4, .L5+12
  73 0038 2368     		ldr	r3, [r4]
  74 003a 5E69     		ldr	r6, [r3, #20]
  75 003c 6023     		movs	r3, #96
  76 003e 4246     		mov	r2, r8
  77 0040 3946     		mov	r1, r7
  78 0042 2868     		ldr	r0, [r5]
  79 0044 B047     		blx	r6
  80              	.LVL5:
 371:uartstdio.c   ****                             (UART_CONFIG_PAR_NONE | UART_CONFIG_STOP_ONE |
 372:uartstdio.c   ****                              UART_CONFIG_WLEN_8));
 373:uartstdio.c   **** 
 374:uartstdio.c   **** #ifdef UART_BUFFERED
 375:uartstdio.c   ****     //
 376:uartstdio.c   ****     // Set the UART to interrupt whenever the TX FIFO is almost empty or
ARM GAS  C:\Users\Diogo\AppData\Local\Temp\ccjiAD3E.s 			page 9


 377:uartstdio.c   ****     // when any character is received.
 378:uartstdio.c   ****     //
 379:uartstdio.c   ****     MAP_UARTFIFOLevelSet(g_ui32Base, UART_FIFO_TX1_8, UART_FIFO_RX1_8);
 380:uartstdio.c   **** 
 381:uartstdio.c   ****     //
 382:uartstdio.c   ****     // Flush both the buffers.
 383:uartstdio.c   ****     //
 384:uartstdio.c   ****     UARTFlushRx();
 385:uartstdio.c   ****     UARTFlushTx(true);
 386:uartstdio.c   **** 
 387:uartstdio.c   ****     //
 388:uartstdio.c   ****     // Remember which interrupt we are dealing with.
 389:uartstdio.c   ****     //
 390:uartstdio.c   ****     g_ui32PortNum = ui32PortNum;
 391:uartstdio.c   **** 
 392:uartstdio.c   ****     //
 393:uartstdio.c   ****     // We are configured for buffered output so enable the master interrupt
 394:uartstdio.c   ****     // for this UART and the receive interrupts.  We don't actually enable the
 395:uartstdio.c   ****     // transmit interrupt in the UART itself until some data has been placed
 396:uartstdio.c   ****     // in the transmit buffer.
 397:uartstdio.c   ****     //
 398:uartstdio.c   ****     MAP_UARTIntDisable(g_ui32Base, 0xFFFFFFFF);
 399:uartstdio.c   ****     MAP_UARTIntEnable(g_ui32Base, UART_INT_RX | UART_INT_RT);
 400:uartstdio.c   ****     MAP_IntEnable(g_ui32UARTInt[ui32PortNum]);
 401:uartstdio.c   **** #endif
 402:uartstdio.c   **** 
 403:uartstdio.c   ****     //
 404:uartstdio.c   ****     // Enable the UART operation.
 405:uartstdio.c   ****     //
 406:uartstdio.c   ****     MAP_UARTEnable(g_ui32Base);
  81              		.loc 1 406 0
  82 0046 2368     		ldr	r3, [r4]
  83 0048 DB69     		ldr	r3, [r3, #28]
  84 004a 2868     		ldr	r0, [r5]
  85 004c 9847     		blx	r3
  86              	.LVL6:
  87              	.L1:
 407:uartstdio.c   **** }
  88              		.loc 1 407 0
  89 004e BDE8F081 		pop	{r4, r5, r6, r7, r8, pc}
  90              	.LVL7:
  91              	.L4:
 339:uartstdio.c   ****            (ui32PortNum == 2));
  92              		.loc 1 339 0 discriminator 1
  93 0052 4FF4AA71 		mov	r1, #340
  94              	.LVL8:
  95 0056 0648     		ldr	r0, .L5+16
  96              	.LVL9:
  97 0058 FFF7FEFF 		bl	__error__
  98              	.LVL10:
  99 005c D7E7     		b	.L2
 100              	.L6:
 101 005e 00BF     		.align	2
 102              	.L5:
 103 0060 00000000 		.word	.LANCHOR0
 104 0064 44000001 		.word	16777284
 105 0068 00000000 		.word	.LANCHOR1
ARM GAS  C:\Users\Diogo\AppData\Local\Temp\ccjiAD3E.s 			page 10


 106 006c 14000001 		.word	16777236
 107 0070 00000000 		.word	.LC0
 108              		.cfi_endproc
 109              	.LFE0:
 110              		.size	UARTStdioConfig, .-UARTStdioConfig
 111              		.align	1
 112              		.global	UARTwrite
 113              		.syntax unified
 114              		.thumb
 115              		.thumb_func
 116              		.fpu softvfp
 117              		.type	UARTwrite, %function
 118              	UARTwrite:
 119              	.LFB1:
 408:uartstdio.c   **** 
 409:uartstdio.c   **** //*****************************************************************************
 410:uartstdio.c   **** //
 411:uartstdio.c   **** //! Writes a string of characters to the UART output.
 412:uartstdio.c   **** //!
 413:uartstdio.c   **** //! \param pcBuf points to a buffer containing the string to transmit.
 414:uartstdio.c   **** //! \param ui32Len is the length of the string to transmit.
 415:uartstdio.c   **** //!
 416:uartstdio.c   **** //! This function will transmit the string to the UART output.  The number of
 417:uartstdio.c   **** //! characters transmitted is determined by the \e ui32Len parameter.  This
 418:uartstdio.c   **** //! function does no interpretation or translation of any characters.  Since
 419:uartstdio.c   **** //! the output is sent to a UART, any LF (/n) characters encountered will be
 420:uartstdio.c   **** //! replaced with a CRLF pair.
 421:uartstdio.c   **** //!
 422:uartstdio.c   **** //! Besides using the \e ui32Len parameter to stop transmitting the string, if
 423:uartstdio.c   **** //! a null character (0) is encountered, then no more characters will be
 424:uartstdio.c   **** //! transmitted and the function will return.
 425:uartstdio.c   **** //!
 426:uartstdio.c   **** //! In non-buffered mode, this function is blocking and will not return until
 427:uartstdio.c   **** //! all the characters have been written to the output FIFO.  In buffered mode,
 428:uartstdio.c   **** //! the characters are written to the UART transmit buffer and the call returns
 429:uartstdio.c   **** //! immediately.  If insufficient space remains in the transmit buffer,
 430:uartstdio.c   **** //! additional characters are discarded.
 431:uartstdio.c   **** //!
 432:uartstdio.c   **** //! \return Returns the count of characters written.
 433:uartstdio.c   **** //
 434:uartstdio.c   **** //*****************************************************************************
 435:uartstdio.c   **** int
 436:uartstdio.c   **** UARTwrite(const char *pcBuf, uint32_t ui32Len)
 437:uartstdio.c   **** {
 120              		.loc 1 437 0
 121              		.cfi_startproc
 122              		@ args = 0, pretend = 0, frame = 0
 123              		@ frame_needed = 0, uses_anonymous_args = 0
 124              	.LVL11:
 125 0074 2DE9F047 		push	{r4, r5, r6, r7, r8, r9, r10, lr}
 126              	.LCFI1:
 127              		.cfi_def_cfa_offset 32
 128              		.cfi_offset 4, -32
 129              		.cfi_offset 5, -28
 130              		.cfi_offset 6, -24
 131              		.cfi_offset 7, -20
 132              		.cfi_offset 8, -16
ARM GAS  C:\Users\Diogo\AppData\Local\Temp\ccjiAD3E.s 			page 11


 133              		.cfi_offset 9, -12
 134              		.cfi_offset 10, -8
 135              		.cfi_offset 14, -4
 136 0078 0546     		mov	r5, r0
 137 007a 8A46     		mov	r10, r1
 438:uartstdio.c   **** #ifdef UART_BUFFERED
 439:uartstdio.c   ****     unsigned int uIdx;
 440:uartstdio.c   **** 
 441:uartstdio.c   ****     //
 442:uartstdio.c   ****     // Check for valid arguments.
 443:uartstdio.c   ****     //
 444:uartstdio.c   ****     ASSERT(pcBuf != 0);
 445:uartstdio.c   ****     ASSERT(g_ui32Base != 0);
 446:uartstdio.c   **** 
 447:uartstdio.c   ****     //
 448:uartstdio.c   ****     // Send the characters
 449:uartstdio.c   ****     //
 450:uartstdio.c   ****     for(uIdx = 0; uIdx < ui32Len; uIdx++)
 451:uartstdio.c   ****     {
 452:uartstdio.c   ****         //
 453:uartstdio.c   ****         // If the character to the UART is \n, then add a \r before it so that
 454:uartstdio.c   ****         // \n is translated to \n\r in the output.
 455:uartstdio.c   ****         //
 456:uartstdio.c   ****         if(pcBuf[uIdx] == '\n')
 457:uartstdio.c   ****         {
 458:uartstdio.c   ****             if(!TX_BUFFER_FULL)
 459:uartstdio.c   ****             {
 460:uartstdio.c   ****                 g_pcUARTTxBuffer[g_ui32UARTTxWriteIndex] = '\r';
 461:uartstdio.c   ****                 ADVANCE_TX_BUFFER_INDEX(g_ui32UARTTxWriteIndex);
 462:uartstdio.c   ****             }
 463:uartstdio.c   ****             else
 464:uartstdio.c   ****             {
 465:uartstdio.c   ****                 //
 466:uartstdio.c   ****                 // Buffer is full - discard remaining characters and return.
 467:uartstdio.c   ****                 //
 468:uartstdio.c   ****                 break;
 469:uartstdio.c   ****             }
 470:uartstdio.c   ****         }
 471:uartstdio.c   **** 
 472:uartstdio.c   ****         //
 473:uartstdio.c   ****         // Send the character to the UART output.
 474:uartstdio.c   ****         //
 475:uartstdio.c   ****         if(!TX_BUFFER_FULL)
 476:uartstdio.c   ****         {
 477:uartstdio.c   ****             g_pcUARTTxBuffer[g_ui32UARTTxWriteIndex] = pcBuf[uIdx];
 478:uartstdio.c   ****             ADVANCE_TX_BUFFER_INDEX(g_ui32UARTTxWriteIndex);
 479:uartstdio.c   ****         }
 480:uartstdio.c   ****         else
 481:uartstdio.c   ****         {
 482:uartstdio.c   ****             //
 483:uartstdio.c   ****             // Buffer is full - discard remaining characters and return.
 484:uartstdio.c   ****             //
 485:uartstdio.c   ****             break;
 486:uartstdio.c   ****         }
 487:uartstdio.c   ****     }
 488:uartstdio.c   **** 
 489:uartstdio.c   ****     //
ARM GAS  C:\Users\Diogo\AppData\Local\Temp\ccjiAD3E.s 			page 12


 490:uartstdio.c   ****     // If we have anything in the buffer, make sure that the UART is set
 491:uartstdio.c   ****     // up to transmit it.
 492:uartstdio.c   ****     //
 493:uartstdio.c   ****     if(!TX_BUFFER_EMPTY)
 494:uartstdio.c   ****     {
 495:uartstdio.c   ****         UARTPrimeTransmit(g_ui32Base);
 496:uartstdio.c   ****         MAP_UARTIntEnable(g_ui32Base, UART_INT_TX);
 497:uartstdio.c   ****     }
 498:uartstdio.c   **** 
 499:uartstdio.c   ****     //
 500:uartstdio.c   ****     // Return the number of characters written.
 501:uartstdio.c   ****     //
 502:uartstdio.c   ****     return(uIdx);
 503:uartstdio.c   **** #else
 504:uartstdio.c   ****     unsigned int uIdx;
 505:uartstdio.c   **** 
 506:uartstdio.c   ****     //
 507:uartstdio.c   ****     // Check for valid UART base address, and valid arguments.
 508:uartstdio.c   ****     //
 509:uartstdio.c   ****     ASSERT(g_ui32Base != 0);
 138              		.loc 1 509 0
 139 007c 184B     		ldr	r3, .L16
 140 007e 1B68     		ldr	r3, [r3]
 141 0080 63B1     		cbz	r3, .L14
 142              	.LVL12:
 143              	.L8:
 510:uartstdio.c   ****     ASSERT(pcBuf != 0);
 144              		.loc 1 510 0
 145 0082 8DB1     		cbz	r5, .L15
 146              	.L9:
 147              	.LVL13:
 511:uartstdio.c   **** 
 512:uartstdio.c   ****     //
 513:uartstdio.c   ****     // Send the characters
 514:uartstdio.c   ****     //
 515:uartstdio.c   ****     for(uIdx = 0; uIdx < ui32Len; uIdx++)
 148              		.loc 1 515 0 discriminator 1
 149 0084 BAF1000F 		cmp	r10, #0
 150 0088 26D0     		beq	.L10
 151 008a 6C1E     		subs	r4, r5, #1
 152 008c 0AF1FF38 		add	r8, r10, #-1
 153 0090 A844     		add	r8, r8, r5
 516:uartstdio.c   ****     {
 517:uartstdio.c   ****         //
 518:uartstdio.c   ****         // If the character to the UART is \n, then add a \r before it so that
 519:uartstdio.c   ****         // \n is translated to \n\r in the output.
 520:uartstdio.c   ****         //
 521:uartstdio.c   ****         if(pcBuf[uIdx] == '\n')
 522:uartstdio.c   ****         {
 523:uartstdio.c   ****             MAP_UARTCharPut(g_ui32Base, '\r');
 154              		.loc 1 523 0
 155 0092 134F     		ldr	r7, .L16
 156 0094 134E     		ldr	r6, .L16+4
 157 0096 4FF00D09 		mov	r9, #13
 158 009a 12E0     		b	.L12
 159              	.LVL14:
 160              	.L14:
ARM GAS  C:\Users\Diogo\AppData\Local\Temp\ccjiAD3E.s 			page 13


 509:uartstdio.c   ****     ASSERT(pcBuf != 0);
 161              		.loc 1 509 0 discriminator 1
 162 009c 40F2FD11 		movw	r1, #509
 163              	.LVL15:
 164 00a0 1148     		ldr	r0, .L16+8
 165              	.LVL16:
 166 00a2 FFF7FEFF 		bl	__error__
 167              	.LVL17:
 168 00a6 ECE7     		b	.L8
 169              	.L15:
 510:uartstdio.c   **** 
 170              		.loc 1 510 0 discriminator 1
 171 00a8 4FF4FF71 		mov	r1, #510
 172 00ac 0E48     		ldr	r0, .L16+8
 173 00ae FFF7FEFF 		bl	__error__
 174              	.LVL18:
 175 00b2 E7E7     		b	.L9
 176              	.LVL19:
 177              	.L11:
 524:uartstdio.c   ****         }
 525:uartstdio.c   **** 
 526:uartstdio.c   ****         //
 527:uartstdio.c   ****         // Send the character to the UART output.
 528:uartstdio.c   ****         //
 529:uartstdio.c   ****         MAP_UARTCharPut(g_ui32Base, pcBuf[uIdx]);
 178              		.loc 1 529 0 discriminator 2
 179 00b4 3368     		ldr	r3, [r6]
 180 00b6 1B68     		ldr	r3, [r3]
 181 00b8 2978     		ldrb	r1, [r5]	@ zero_extendqisi2
 182 00ba 3868     		ldr	r0, [r7]
 183 00bc 9847     		blx	r3
 184              	.LVL20:
 515:uartstdio.c   ****     {
 185              		.loc 1 515 0 discriminator 2
 186 00be 4445     		cmp	r4, r8
 187 00c0 0AD0     		beq	.L10
 188              	.LVL21:
 189              	.L12:
 190 00c2 0134     		adds	r4, r4, #1
 191              	.LVL22:
 192 00c4 2546     		mov	r5, r4
 521:uartstdio.c   ****         {
 193              		.loc 1 521 0
 194 00c6 2378     		ldrb	r3, [r4]	@ zero_extendqisi2
 195 00c8 0A2B     		cmp	r3, #10
 196 00ca F3D1     		bne	.L11
 523:uartstdio.c   ****         }
 197              		.loc 1 523 0
 198 00cc 3368     		ldr	r3, [r6]
 199 00ce 1B68     		ldr	r3, [r3]
 200 00d0 4946     		mov	r1, r9
 201 00d2 3868     		ldr	r0, [r7]
 202 00d4 9847     		blx	r3
 203              	.LVL23:
 204 00d6 EDE7     		b	.L11
 205              	.LVL24:
 206              	.L10:
ARM GAS  C:\Users\Diogo\AppData\Local\Temp\ccjiAD3E.s 			page 14


 530:uartstdio.c   ****     }
 531:uartstdio.c   **** 
 532:uartstdio.c   ****     //
 533:uartstdio.c   ****     // Return the number of characters written.
 534:uartstdio.c   ****     //
 535:uartstdio.c   ****     return(uIdx);
 536:uartstdio.c   **** #endif
 537:uartstdio.c   **** }
 207              		.loc 1 537 0
 208 00d8 5046     		mov	r0, r10
 209 00da BDE8F087 		pop	{r4, r5, r6, r7, r8, r9, r10, pc}
 210              	.LVL25:
 211              	.L17:
 212 00de 00BF     		.align	2
 213              	.L16:
 214 00e0 00000000 		.word	.LANCHOR1
 215 00e4 14000001 		.word	16777236
 216 00e8 00000000 		.word	.LC0
 217              		.cfi_endproc
 218              	.LFE1:
 219              		.size	UARTwrite, .-UARTwrite
 220              		.align	1
 221              		.global	UARTgets
 222              		.syntax unified
 223              		.thumb
 224              		.thumb_func
 225              		.fpu softvfp
 226              		.type	UARTgets, %function
 227              	UARTgets:
 228              	.LFB2:
 538:uartstdio.c   **** 
 539:uartstdio.c   **** //*****************************************************************************
 540:uartstdio.c   **** //
 541:uartstdio.c   **** //! A simple UART based get string function, with some line processing.
 542:uartstdio.c   **** //!
 543:uartstdio.c   **** //! \param pcBuf points to a buffer for the incoming string from the UART.
 544:uartstdio.c   **** //! \param ui32Len is the length of the buffer for storage of the string,
 545:uartstdio.c   **** //! including the trailing 0.
 546:uartstdio.c   **** //!
 547:uartstdio.c   **** //! This function will receive a string from the UART input and store the
 548:uartstdio.c   **** //! characters in the buffer pointed to by \e pcBuf.  The characters will
 549:uartstdio.c   **** //! continue to be stored until a termination character is received.  The
 550:uartstdio.c   **** //! termination characters are CR, LF, or ESC.  A CRLF pair is treated as a
 551:uartstdio.c   **** //! single termination character.  The termination characters are not stored in
 552:uartstdio.c   **** //! the string.  The string will be terminated with a 0 and the function will
 553:uartstdio.c   **** //! return.
 554:uartstdio.c   **** //!
 555:uartstdio.c   **** //! In both buffered and unbuffered modes, this function will block until
 556:uartstdio.c   **** //! a termination character is received.  If non-blocking operation is required
 557:uartstdio.c   **** //! in buffered mode, a call to UARTPeek() may be made to determine whether
 558:uartstdio.c   **** //! a termination character already exists in the receive buffer prior to
 559:uartstdio.c   **** //! calling UARTgets().
 560:uartstdio.c   **** //!
 561:uartstdio.c   **** //! Since the string will be null terminated, the user must ensure that the
 562:uartstdio.c   **** //! buffer is sized to allow for the additional null character.
 563:uartstdio.c   **** //!
 564:uartstdio.c   **** //! \return Returns the count of characters that were stored, not including
ARM GAS  C:\Users\Diogo\AppData\Local\Temp\ccjiAD3E.s 			page 15


 565:uartstdio.c   **** //! the trailing 0.
 566:uartstdio.c   **** //
 567:uartstdio.c   **** //*****************************************************************************
 568:uartstdio.c   **** int
 569:uartstdio.c   **** UARTgets(char *pcBuf, uint32_t ui32Len)
 570:uartstdio.c   **** {
 229              		.loc 1 570 0
 230              		.cfi_startproc
 231              		@ args = 0, pretend = 0, frame = 0
 232              		@ frame_needed = 0, uses_anonymous_args = 0
 233              	.LVL26:
 234 00ec 2DE9F843 		push	{r3, r4, r5, r6, r7, r8, r9, lr}
 235              	.LCFI2:
 236              		.cfi_def_cfa_offset 32
 237              		.cfi_offset 3, -32
 238              		.cfi_offset 4, -28
 239              		.cfi_offset 5, -24
 240              		.cfi_offset 6, -20
 241              		.cfi_offset 7, -16
 242              		.cfi_offset 8, -12
 243              		.cfi_offset 9, -8
 244              		.cfi_offset 14, -4
 245 00f0 0F46     		mov	r7, r1
 246              	.LVL27:
 571:uartstdio.c   **** #ifdef UART_BUFFERED
 572:uartstdio.c   ****     uint32_t ui32Count = 0;
 573:uartstdio.c   ****     int8_t cChar;
 574:uartstdio.c   **** 
 575:uartstdio.c   ****     //
 576:uartstdio.c   ****     // Check the arguments.
 577:uartstdio.c   ****     //
 578:uartstdio.c   ****     ASSERT(pcBuf != 0);
 579:uartstdio.c   ****     ASSERT(ui32Len != 0);
 580:uartstdio.c   ****     ASSERT(g_ui32Base != 0);
 581:uartstdio.c   **** 
 582:uartstdio.c   ****     //
 583:uartstdio.c   ****     // Adjust the length back by 1 to leave space for the trailing
 584:uartstdio.c   ****     // null terminator.
 585:uartstdio.c   ****     //
 586:uartstdio.c   ****     ui32Len--;
 587:uartstdio.c   **** 
 588:uartstdio.c   ****     //
 589:uartstdio.c   ****     // Process characters until a newline is received.
 590:uartstdio.c   ****     //
 591:uartstdio.c   ****     while(1)
 592:uartstdio.c   ****     {
 593:uartstdio.c   ****         //
 594:uartstdio.c   ****         // Read the next character from the receive buffer.
 595:uartstdio.c   ****         //
 596:uartstdio.c   ****         if(!RX_BUFFER_EMPTY)
 597:uartstdio.c   ****         {
 598:uartstdio.c   ****             cChar = g_pcUARTRxBuffer[g_ui32UARTRxReadIndex];
 599:uartstdio.c   ****             ADVANCE_RX_BUFFER_INDEX(g_ui32UARTRxReadIndex);
 600:uartstdio.c   **** 
 601:uartstdio.c   ****             //
 602:uartstdio.c   ****             // See if a newline or escape character was received.
 603:uartstdio.c   ****             //
ARM GAS  C:\Users\Diogo\AppData\Local\Temp\ccjiAD3E.s 			page 16


 604:uartstdio.c   ****             if((cChar == '\r') || (cChar == '\n') || (cChar == 0x1b))
 605:uartstdio.c   ****             {
 606:uartstdio.c   ****                 //
 607:uartstdio.c   ****                 // Stop processing the input and end the line.
 608:uartstdio.c   ****                 //
 609:uartstdio.c   ****                 break;
 610:uartstdio.c   ****             }
 611:uartstdio.c   **** 
 612:uartstdio.c   ****             //
 613:uartstdio.c   ****             // Process the received character as long as we are not at the end
 614:uartstdio.c   ****             // of the buffer.  If the end of the buffer has been reached then
 615:uartstdio.c   ****             // all additional characters are ignored until a newline is
 616:uartstdio.c   ****             // received.
 617:uartstdio.c   ****             //
 618:uartstdio.c   ****             if(ui32Count < ui32Len)
 619:uartstdio.c   ****             {
 620:uartstdio.c   ****                 //
 621:uartstdio.c   ****                 // Store the character in the caller supplied buffer.
 622:uartstdio.c   ****                 //
 623:uartstdio.c   ****                 pcBuf[ui32Count] = cChar;
 624:uartstdio.c   **** 
 625:uartstdio.c   ****                 //
 626:uartstdio.c   ****                 // Increment the count of characters received.
 627:uartstdio.c   ****                 //
 628:uartstdio.c   ****                 ui32Count++;
 629:uartstdio.c   ****             }
 630:uartstdio.c   ****         }
 631:uartstdio.c   ****     }
 632:uartstdio.c   **** 
 633:uartstdio.c   ****     //
 634:uartstdio.c   ****     // Add a null termination to the string.
 635:uartstdio.c   ****     //
 636:uartstdio.c   ****     pcBuf[ui32Count] = 0;
 637:uartstdio.c   **** 
 638:uartstdio.c   ****     //
 639:uartstdio.c   ****     // Return the count of int8_ts in the buffer, not counting the trailing 0.
 640:uartstdio.c   ****     //
 641:uartstdio.c   ****     return(ui32Count);
 642:uartstdio.c   **** #else
 643:uartstdio.c   ****     uint32_t ui32Count = 0;
 644:uartstdio.c   ****     int8_t cChar;
 645:uartstdio.c   ****     static int8_t bLastWasCR = 0;
 646:uartstdio.c   **** 
 647:uartstdio.c   ****     //
 648:uartstdio.c   ****     // Check the arguments.
 649:uartstdio.c   ****     //
 650:uartstdio.c   ****     ASSERT(pcBuf != 0);
 247              		.loc 1 650 0
 248 00f2 8046     		mov	r8, r0
 249 00f4 50B1     		cbz	r0, .L33
 250              	.LVL28:
 251              	.L19:
 651:uartstdio.c   ****     ASSERT(ui32Len != 0);
 252              		.loc 1 651 0
 253 00f6 7FB1     		cbz	r7, .L34
 254              	.L20:
 652:uartstdio.c   ****     ASSERT(g_ui32Base != 0);
ARM GAS  C:\Users\Diogo\AppData\Local\Temp\ccjiAD3E.s 			page 17


 255              		.loc 1 652 0
 256 00f8 264B     		ldr	r3, .L39
 257 00fa 1B68     		ldr	r3, [r3]
 258 00fc 93B1     		cbz	r3, .L35
 259              	.L21:
 653:uartstdio.c   **** 
 654:uartstdio.c   ****     //
 655:uartstdio.c   ****     // Adjust the length back by 1 to leave space for the trailing
 656:uartstdio.c   ****     // null terminator.
 657:uartstdio.c   ****     //
 658:uartstdio.c   ****     ui32Len--;
 260              		.loc 1 658 0
 261 00fe 013F     		subs	r7, r7, #1
 262              	.LVL29:
 643:uartstdio.c   ****     int8_t cChar;
 263              		.loc 1 643 0
 264 0100 0024     		movs	r4, #0
 659:uartstdio.c   **** 
 660:uartstdio.c   ****     //
 661:uartstdio.c   ****     // Process characters until a newline is received.
 662:uartstdio.c   ****     //
 663:uartstdio.c   ****     while(1)
 664:uartstdio.c   ****     {
 665:uartstdio.c   ****         //
 666:uartstdio.c   ****         // Read the next character from the console.
 667:uartstdio.c   ****         //
 668:uartstdio.c   ****         cChar = MAP_UARTCharGet(g_ui32Base);
 265              		.loc 1 668 0
 266 0102 244D     		ldr	r5, .L39
 267 0104 244E     		ldr	r6, .L39+4
 669:uartstdio.c   **** 
 670:uartstdio.c   ****         //
 671:uartstdio.c   ****         // See if the backspace key was pressed.
 672:uartstdio.c   ****         //
 673:uartstdio.c   ****         if(cChar == '\b')
 674:uartstdio.c   ****         {
 675:uartstdio.c   ****             //
 676:uartstdio.c   ****             // If there are any characters already in the buffer, then delete
 677:uartstdio.c   ****             // the last.
 678:uartstdio.c   ****             //
 679:uartstdio.c   ****             if(ui32Count)
 680:uartstdio.c   ****             {
 681:uartstdio.c   ****                 //
 682:uartstdio.c   ****                 // Rub out the previous character.
 683:uartstdio.c   ****                 //
 684:uartstdio.c   ****                 UARTwrite("\b \b", 3);
 268              		.loc 1 684 0
 269 0106 DFF89C90 		ldr	r9, .L39+16
 270 010a 34E0     		b	.L22
 271              	.LVL30:
 272              	.L33:
 650:uartstdio.c   ****     ASSERT(ui32Len != 0);
 273              		.loc 1 650 0 discriminator 1
 274 010c 40F28A21 		movw	r1, #650
 275              	.LVL31:
 276 0110 2248     		ldr	r0, .L39+8
 277              	.LVL32:
ARM GAS  C:\Users\Diogo\AppData\Local\Temp\ccjiAD3E.s 			page 18


 278 0112 FFF7FEFF 		bl	__error__
 279              	.LVL33:
 280 0116 EEE7     		b	.L19
 281              	.L34:
 651:uartstdio.c   ****     ASSERT(g_ui32Base != 0);
 282              		.loc 1 651 0 discriminator 1
 283 0118 40F28B21 		movw	r1, #651
 284 011c 1F48     		ldr	r0, .L39+8
 285 011e FFF7FEFF 		bl	__error__
 286              	.LVL34:
 287 0122 E9E7     		b	.L20
 288              	.L35:
 652:uartstdio.c   **** 
 289              		.loc 1 652 0 discriminator 1
 290 0124 4FF42371 		mov	r1, #652
 291 0128 1C48     		ldr	r0, .L39+8
 292 012a FFF7FEFF 		bl	__error__
 293              	.LVL35:
 294 012e E6E7     		b	.L21
 295              	.LVL36:
 296              	.L37:
 679:uartstdio.c   ****             {
 297              		.loc 1 679 0
 298 0130 0CB3     		cbz	r4, .L22
 299              		.loc 1 684 0
 300 0132 0321     		movs	r1, #3
 301 0134 4846     		mov	r0, r9
 302 0136 FFF7FEFF 		bl	UARTwrite
 303              	.LVL37:
 685:uartstdio.c   **** 
 686:uartstdio.c   ****                 //
 687:uartstdio.c   ****                 // Decrement the number of characters in the buffer.
 688:uartstdio.c   ****                 //
 689:uartstdio.c   ****                 ui32Count--;
 304              		.loc 1 689 0
 305 013a 013C     		subs	r4, r4, #1
 306              	.LVL38:
 307 013c 1BE0     		b	.L22
 308              	.LVL39:
 309              	.L38:
 690:uartstdio.c   ****             }
 691:uartstdio.c   **** 
 692:uartstdio.c   ****             //
 693:uartstdio.c   ****             // Skip ahead to read the next character.
 694:uartstdio.c   ****             //
 695:uartstdio.c   ****             continue;
 696:uartstdio.c   ****         }
 697:uartstdio.c   **** 
 698:uartstdio.c   ****         //
 699:uartstdio.c   ****         // If this character is LF and last was CR, then just gobble up the
 700:uartstdio.c   ****         // character because the EOL processing was taken care of with the CR.
 701:uartstdio.c   ****         //
 702:uartstdio.c   ****         if((cChar == '\n') && bLastWasCR)
 310              		.loc 1 702 0 discriminator 1
 311 013e 95F90430 		ldrsb	r3, [r5, #4]
 312              	.LVL40:
 313 0142 4BB9     		cbnz	r3, .L36
ARM GAS  C:\Users\Diogo\AppData\Local\Temp\ccjiAD3E.s 			page 19


 314              	.L26:
 703:uartstdio.c   ****         {
 704:uartstdio.c   ****             bLastWasCR = 0;
 705:uartstdio.c   ****             continue;
 706:uartstdio.c   ****         }
 707:uartstdio.c   **** 
 708:uartstdio.c   ****         //
 709:uartstdio.c   ****         // See if a newline or escape character was received.
 710:uartstdio.c   ****         //
 711:uartstdio.c   ****         if((cChar == '\r') || (cChar == '\n') || (cChar == 0x1b))
 712:uartstdio.c   ****         {
 713:uartstdio.c   ****             //
 714:uartstdio.c   ****             // If the character is a CR, then it may be followed by a LF which
 715:uartstdio.c   ****             // should be paired with the CR.  So remember that a CR was
 716:uartstdio.c   ****             // received.
 717:uartstdio.c   ****             //
 718:uartstdio.c   ****             if(cChar == '\r')
 719:uartstdio.c   ****             {
 720:uartstdio.c   ****                 bLastWasCR = 1;
 721:uartstdio.c   ****             }
 722:uartstdio.c   **** 
 723:uartstdio.c   ****             //
 724:uartstdio.c   ****             // Stop processing the input and end the line.
 725:uartstdio.c   ****             //
 726:uartstdio.c   ****             break;
 727:uartstdio.c   ****         }
 728:uartstdio.c   **** 
 729:uartstdio.c   ****         //
 730:uartstdio.c   ****         // Process the received character as long as we are not at the end of
 731:uartstdio.c   ****         // the buffer.  If the end of the buffer has been reached then all
 732:uartstdio.c   ****         // additional characters are ignored until a newline is received.
 733:uartstdio.c   ****         //
 734:uartstdio.c   ****         if(ui32Count < ui32Len)
 735:uartstdio.c   ****         {
 736:uartstdio.c   ****             //
 737:uartstdio.c   ****             // Store the character in the caller supplied buffer.
 738:uartstdio.c   ****             //
 739:uartstdio.c   ****             pcBuf[ui32Count] = cChar;
 740:uartstdio.c   **** 
 741:uartstdio.c   ****             //
 742:uartstdio.c   ****             // Increment the count of characters received.
 743:uartstdio.c   ****             //
 744:uartstdio.c   ****             ui32Count++;
 745:uartstdio.c   **** 
 746:uartstdio.c   ****             //
 747:uartstdio.c   ****             // Reflect the character back to the user.
 748:uartstdio.c   ****             //
 749:uartstdio.c   ****             MAP_UARTCharPut(g_ui32Base, cChar);
 750:uartstdio.c   ****         }
 751:uartstdio.c   ****     }
 752:uartstdio.c   **** 
 753:uartstdio.c   ****     //
 754:uartstdio.c   ****     // Add a null termination to the string.
 755:uartstdio.c   ****     //
 756:uartstdio.c   ****     pcBuf[ui32Count] = 0;
 315              		.loc 1 756 0
 316 0144 0023     		movs	r3, #0
ARM GAS  C:\Users\Diogo\AppData\Local\Temp\ccjiAD3E.s 			page 20


 317 0146 08F80430 		strb	r3, [r8, r4]
 757:uartstdio.c   **** 
 758:uartstdio.c   ****     //
 759:uartstdio.c   ****     // Send a CRLF pair to the terminal to end the line.
 760:uartstdio.c   ****     //
 761:uartstdio.c   ****     UARTwrite("\r\n", 2);
 318              		.loc 1 761 0
 319 014a 0221     		movs	r1, #2
 320 014c 1448     		ldr	r0, .L39+12
 321              	.LVL41:
 322 014e FFF7FEFF 		bl	UARTwrite
 323              	.LVL42:
 762:uartstdio.c   **** 
 763:uartstdio.c   ****     //
 764:uartstdio.c   ****     // Return the count of int8_ts in the buffer, not counting the trailing 0.
 765:uartstdio.c   ****     //
 766:uartstdio.c   ****     return(ui32Count);
 767:uartstdio.c   **** #endif
 768:uartstdio.c   **** }
 324              		.loc 1 768 0
 325 0152 2046     		mov	r0, r4
 326 0154 BDE8F883 		pop	{r3, r4, r5, r6, r7, r8, r9, pc}
 327              	.LVL43:
 328              	.L36:
 704:uartstdio.c   ****             continue;
 329              		.loc 1 704 0
 330 0158 0023     		movs	r3, #0
 331 015a 2B71     		strb	r3, [r5, #4]
 705:uartstdio.c   ****         }
 332              		.loc 1 705 0
 333 015c 0BE0     		b	.L22
 334              	.LVL44:
 335              	.L32:
 711:uartstdio.c   ****         {
 336              		.loc 1 711 0 discriminator 2
 337 015e 1B2B     		cmp	r3, #27
 338 0160 F0D0     		beq	.L26
 734:uartstdio.c   ****         {
 339              		.loc 1 734 0
 340 0162 BC42     		cmp	r4, r7
 341 0164 07D2     		bcs	.L22
 739:uartstdio.c   **** 
 342              		.loc 1 739 0
 343 0166 C1B2     		uxtb	r1, r0
 344 0168 08F80410 		strb	r1, [r8, r4]
 744:uartstdio.c   **** 
 345              		.loc 1 744 0
 346 016c 0134     		adds	r4, r4, #1
 347              	.LVL45:
 749:uartstdio.c   ****         }
 348              		.loc 1 749 0
 349 016e 3368     		ldr	r3, [r6]
 350              	.LVL46:
 351 0170 1B68     		ldr	r3, [r3]
 352 0172 2868     		ldr	r0, [r5]
 353              	.LVL47:
 354 0174 9847     		blx	r3
ARM GAS  C:\Users\Diogo\AppData\Local\Temp\ccjiAD3E.s 			page 21


 355              	.LVL48:
 356              	.L22:
 668:uartstdio.c   **** 
 357              		.loc 1 668 0
 358 0176 3368     		ldr	r3, [r6]
 359 0178 9B6B     		ldr	r3, [r3, #56]
 360 017a 2868     		ldr	r0, [r5]
 361 017c 9847     		blx	r3
 362              	.LVL49:
 363 017e 43B2     		sxtb	r3, r0
 364              	.LVL50:
 673:uartstdio.c   ****         {
 365              		.loc 1 673 0
 366 0180 082B     		cmp	r3, #8
 367 0182 D5D0     		beq	.L37
 702:uartstdio.c   ****         {
 368              		.loc 1 702 0
 369 0184 0A2B     		cmp	r3, #10
 370 0186 DAD0     		beq	.L38
 711:uartstdio.c   ****         {
 371              		.loc 1 711 0
 372 0188 0D2B     		cmp	r3, #13
 373 018a E8D1     		bne	.L32
 720:uartstdio.c   ****             }
 374              		.loc 1 720 0
 375 018c 014B     		ldr	r3, .L39
 376              	.LVL51:
 377 018e 0122     		movs	r2, #1
 378 0190 1A71     		strb	r2, [r3, #4]
 379 0192 D7E7     		b	.L26
 380              	.L40:
 381              		.align	2
 382              	.L39:
 383 0194 00000000 		.word	.LANCHOR1
 384 0198 14000001 		.word	16777236
 385 019c 00000000 		.word	.LC0
 386 01a0 10000000 		.word	.LC2
 387 01a4 0C000000 		.word	.LC1
 388              		.cfi_endproc
 389              	.LFE2:
 390              		.size	UARTgets, .-UARTgets
 391              		.align	1
 392              		.global	UARTgetc
 393              		.syntax unified
 394              		.thumb
 395              		.thumb_func
 396              		.fpu softvfp
 397              		.type	UARTgetc, %function
 398              	UARTgetc:
 399              	.LFB3:
 769:uartstdio.c   **** 
 770:uartstdio.c   **** //*****************************************************************************
 771:uartstdio.c   **** //
 772:uartstdio.c   **** //! Read a single character from the UART, blocking if necessary.
 773:uartstdio.c   **** //!
 774:uartstdio.c   **** //! This function will receive a single character from the UART and store it at
 775:uartstdio.c   **** //! the supplied address.
ARM GAS  C:\Users\Diogo\AppData\Local\Temp\ccjiAD3E.s 			page 22


 776:uartstdio.c   **** //!
 777:uartstdio.c   **** //! In both buffered and unbuffered modes, this function will block until a
 778:uartstdio.c   **** //! character is received.  If non-blocking operation is required in buffered
 779:uartstdio.c   **** //! mode, a call to UARTRxAvail() may be made to determine whether any
 780:uartstdio.c   **** //! characters are currently available for reading.
 781:uartstdio.c   **** //!
 782:uartstdio.c   **** //! \return Returns the character read.
 783:uartstdio.c   **** //
 784:uartstdio.c   **** //*****************************************************************************
 785:uartstdio.c   **** unsigned char
 786:uartstdio.c   **** UARTgetc(void)
 787:uartstdio.c   **** {
 400              		.loc 1 787 0
 401              		.cfi_startproc
 402              		@ args = 0, pretend = 0, frame = 0
 403              		@ frame_needed = 0, uses_anonymous_args = 0
 404 01a8 08B5     		push	{r3, lr}
 405              	.LCFI3:
 406              		.cfi_def_cfa_offset 8
 407              		.cfi_offset 3, -8
 408              		.cfi_offset 14, -4
 788:uartstdio.c   **** #ifdef UART_BUFFERED
 789:uartstdio.c   ****     unsigned char cChar;
 790:uartstdio.c   **** 
 791:uartstdio.c   ****     //
 792:uartstdio.c   ****     // Wait for a character to be received.
 793:uartstdio.c   ****     //
 794:uartstdio.c   ****     while(RX_BUFFER_EMPTY)
 795:uartstdio.c   ****     {
 796:uartstdio.c   ****         //
 797:uartstdio.c   ****         // Block waiting for a character to be received (if the buffer is
 798:uartstdio.c   ****         // currently empty).
 799:uartstdio.c   ****         //
 800:uartstdio.c   ****     }
 801:uartstdio.c   **** 
 802:uartstdio.c   ****     //
 803:uartstdio.c   ****     // Read a character from the buffer.
 804:uartstdio.c   ****     //
 805:uartstdio.c   ****     cChar = g_pcUARTRxBuffer[g_ui32UARTRxReadIndex];
 806:uartstdio.c   ****     ADVANCE_RX_BUFFER_INDEX(g_ui32UARTRxReadIndex);
 807:uartstdio.c   **** 
 808:uartstdio.c   ****     //
 809:uartstdio.c   ****     // Return the character to the caller.
 810:uartstdio.c   ****     //
 811:uartstdio.c   ****     return(cChar);
 812:uartstdio.c   **** #else
 813:uartstdio.c   ****     //
 814:uartstdio.c   ****     // Block until a character is received by the UART then return it to
 815:uartstdio.c   ****     // the caller.
 816:uartstdio.c   ****     //
 817:uartstdio.c   ****     return(MAP_UARTCharGet(g_ui32Base));
 409              		.loc 1 817 0
 410 01aa 044B     		ldr	r3, .L42
 411 01ac 1B68     		ldr	r3, [r3]
 412 01ae 9B6B     		ldr	r3, [r3, #56]
 413 01b0 034A     		ldr	r2, .L42+4
 414 01b2 1068     		ldr	r0, [r2]
ARM GAS  C:\Users\Diogo\AppData\Local\Temp\ccjiAD3E.s 			page 23


 415 01b4 9847     		blx	r3
 416              	.LVL52:
 818:uartstdio.c   **** #endif
 819:uartstdio.c   **** }
 417              		.loc 1 819 0
 418 01b6 C0B2     		uxtb	r0, r0
 419 01b8 08BD     		pop	{r3, pc}
 420              	.L43:
 421 01ba 00BF     		.align	2
 422              	.L42:
 423 01bc 14000001 		.word	16777236
 424 01c0 00000000 		.word	.LANCHOR1
 425              		.cfi_endproc
 426              	.LFE3:
 427              		.size	UARTgetc, .-UARTgetc
 428              		.align	1
 429              		.global	UARTvprintf
 430              		.syntax unified
 431              		.thumb
 432              		.thumb_func
 433              		.fpu softvfp
 434              		.type	UARTvprintf, %function
 435              	UARTvprintf:
 436              	.LFB4:
 820:uartstdio.c   **** 
 821:uartstdio.c   **** //*****************************************************************************
 822:uartstdio.c   **** //
 823:uartstdio.c   **** //! A simple UART based vprintf function supporting \%c, \%d, \%p, \%s, \%u,
 824:uartstdio.c   **** //! \%x, and \%X.
 825:uartstdio.c   **** //!
 826:uartstdio.c   **** //! \param pcString is the format string.
 827:uartstdio.c   **** //! \param vaArgP is a variable argument list pointer whose content will depend
 828:uartstdio.c   **** //! upon the format string passed in \e pcString.
 829:uartstdio.c   **** //!
 830:uartstdio.c   **** //! This function is very similar to the C library <tt>vprintf()</tt> function.
 831:uartstdio.c   **** //! All of its output will be sent to the UART.  Only the following formatting
 832:uartstdio.c   **** //! characters are supported:
 833:uartstdio.c   **** //!
 834:uartstdio.c   **** //! - \%c to print a character
 835:uartstdio.c   **** //! - \%d or \%i to print a decimal value
 836:uartstdio.c   **** //! - \%s to print a string
 837:uartstdio.c   **** //! - \%u to print an unsigned decimal value
 838:uartstdio.c   **** //! - \%x to print a hexadecimal value using lower case letters
 839:uartstdio.c   **** //! - \%X to print a hexadecimal value using lower case letters (not upper case
 840:uartstdio.c   **** //! letters as would typically be used)
 841:uartstdio.c   **** //! - \%p to print a pointer as a hexadecimal value
 842:uartstdio.c   **** //! - \%\% to print out a \% character
 843:uartstdio.c   **** //!
 844:uartstdio.c   **** //! For \%s, \%d, \%i, \%u, \%p, \%x, and \%X, an optional number may reside
 845:uartstdio.c   **** //! between the \% and the format character, which specifies the minimum number
 846:uartstdio.c   **** //! of characters to use for that value; if preceded by a 0 then the extra
 847:uartstdio.c   **** //! characters will be filled with zeros instead of spaces.  For example,
 848:uartstdio.c   **** //! ``\%8d'' will use eight characters to print the decimal value with spaces
 849:uartstdio.c   **** //! added to reach eight; ``\%08d'' will use eight characters as well but will
 850:uartstdio.c   **** //! add zeroes instead of spaces.
 851:uartstdio.c   **** //!
 852:uartstdio.c   **** //! The type of the arguments in the variable arguments list must match the
ARM GAS  C:\Users\Diogo\AppData\Local\Temp\ccjiAD3E.s 			page 24


 853:uartstdio.c   **** //! requirements of the format string.  For example, if an integer was passed
 854:uartstdio.c   **** //! where a string was expected, an error of some kind will most likely occur.
 855:uartstdio.c   **** //!
 856:uartstdio.c   **** //! \return None.
 857:uartstdio.c   **** //
 858:uartstdio.c   **** //*****************************************************************************
 859:uartstdio.c   **** void
 860:uartstdio.c   **** UARTvprintf(const char *pcString, va_list vaArgP)
 861:uartstdio.c   **** {
 437              		.loc 1 861 0
 438              		.cfi_startproc
 439              		@ args = 0, pretend = 0, frame = 24
 440              		@ frame_needed = 0, uses_anonymous_args = 0
 441              	.LVL53:
 442 01c4 2DE9F04F 		push	{r4, r5, r6, r7, r8, r9, r10, fp, lr}
 443              	.LCFI4:
 444              		.cfi_def_cfa_offset 36
 445              		.cfi_offset 4, -36
 446              		.cfi_offset 5, -32
 447              		.cfi_offset 6, -28
 448              		.cfi_offset 7, -24
 449              		.cfi_offset 8, -20
 450              		.cfi_offset 9, -16
 451              		.cfi_offset 10, -12
 452              		.cfi_offset 11, -8
 453              		.cfi_offset 14, -4
 454 01c8 87B0     		sub	sp, sp, #28
 455              	.LCFI5:
 456              		.cfi_def_cfa_offset 64
 457 01ca 0F46     		mov	r7, r1
 458              	.LVL54:
 862:uartstdio.c   ****     uint32_t ui32Idx, ui32Value, ui32Pos, ui32Count, ui32Base, ui32Neg;
 863:uartstdio.c   ****     char *pcStr, pcBuf[16], cFill;
 864:uartstdio.c   **** 
 865:uartstdio.c   ****     //
 866:uartstdio.c   ****     // Check the arguments.
 867:uartstdio.c   ****     //
 868:uartstdio.c   ****     ASSERT(pcString != 0);
 459              		.loc 1 868 0
 460 01cc 0546     		mov	r5, r0
 461 01ce 28B1     		cbz	r0, .L98
 462              	.LVL55:
 463              	.L45:
 869:uartstdio.c   **** 
 870:uartstdio.c   ****     //
 871:uartstdio.c   ****     // Loop while there are more characters in the string.
 872:uartstdio.c   ****     //
 873:uartstdio.c   ****     while(*pcString)
 874:uartstdio.c   ****     {
 875:uartstdio.c   ****         //
 876:uartstdio.c   ****         // Find the first non-% character, or the end of the string.
 877:uartstdio.c   ****         //
 878:uartstdio.c   ****         for(ui32Idx = 0;
 879:uartstdio.c   ****             (pcString[ui32Idx] != '%') && (pcString[ui32Idx] != '\0');
 880:uartstdio.c   ****             ui32Idx++)
 881:uartstdio.c   ****         {
 882:uartstdio.c   ****         }
ARM GAS  C:\Users\Diogo\AppData\Local\Temp\ccjiAD3E.s 			page 25


 883:uartstdio.c   **** 
 884:uartstdio.c   ****         //
 885:uartstdio.c   ****         // Write this portion of the string.
 886:uartstdio.c   ****         //
 887:uartstdio.c   ****         UARTwrite(pcString, ui32Idx);
 888:uartstdio.c   **** 
 889:uartstdio.c   ****         //
 890:uartstdio.c   ****         // Skip the portion of the string that was written.
 891:uartstdio.c   ****         //
 892:uartstdio.c   ****         pcString += ui32Idx;
 893:uartstdio.c   **** 
 894:uartstdio.c   ****         //
 895:uartstdio.c   ****         // See if the next character is a %.
 896:uartstdio.c   ****         //
 897:uartstdio.c   ****         if(*pcString == '%')
 898:uartstdio.c   ****         {
 899:uartstdio.c   ****             //
 900:uartstdio.c   ****             // Skip the %.
 901:uartstdio.c   ****             //
 902:uartstdio.c   ****             pcString++;
 903:uartstdio.c   **** 
 904:uartstdio.c   ****             //
 905:uartstdio.c   ****             // Set the digit count to zero, and the fill character to space
 906:uartstdio.c   ****             // (in other words, to the defaults).
 907:uartstdio.c   ****             //
 908:uartstdio.c   ****             ui32Count = 0;
 909:uartstdio.c   ****             cFill = ' ';
 910:uartstdio.c   **** 
 911:uartstdio.c   ****             //
 912:uartstdio.c   ****             // It may be necessary to get back here to process more characters.
 913:uartstdio.c   ****             // Goto's aren't pretty, but effective.  I feel extremely dirty for
 914:uartstdio.c   ****             // using not one but two of the beasts.
 915:uartstdio.c   ****             //
 916:uartstdio.c   **** again:
 917:uartstdio.c   **** 
 918:uartstdio.c   ****             //
 919:uartstdio.c   ****             // Determine how to handle the next character.
 920:uartstdio.c   ****             //
 921:uartstdio.c   ****             switch(*pcString++)
 922:uartstdio.c   ****             {
 923:uartstdio.c   ****                 //
 924:uartstdio.c   ****                 // Handle the digit characters.
 925:uartstdio.c   ****                 //
 926:uartstdio.c   ****                 case '0':
 927:uartstdio.c   ****                 case '1':
 928:uartstdio.c   ****                 case '2':
 929:uartstdio.c   ****                 case '3':
 930:uartstdio.c   ****                 case '4':
 931:uartstdio.c   ****                 case '5':
 932:uartstdio.c   ****                 case '6':
 933:uartstdio.c   ****                 case '7':
 934:uartstdio.c   ****                 case '8':
 935:uartstdio.c   ****                 case '9':
 936:uartstdio.c   ****                 {
 937:uartstdio.c   ****                     //
 938:uartstdio.c   ****                     // If this is a zero, and it is the first digit, then the
 939:uartstdio.c   ****                     // fill character is a zero instead of a space.
ARM GAS  C:\Users\Diogo\AppData\Local\Temp\ccjiAD3E.s 			page 26


 940:uartstdio.c   ****                     //
 941:uartstdio.c   ****                     if((pcString[-1] == '0') && (ui32Count == 0))
 942:uartstdio.c   ****                     {
 943:uartstdio.c   ****                         cFill = '0';
 944:uartstdio.c   ****                     }
 945:uartstdio.c   **** 
 946:uartstdio.c   ****                     //
 947:uartstdio.c   ****                     // Update the digit count.
 948:uartstdio.c   ****                     //
 949:uartstdio.c   ****                     ui32Count *= 10;
 950:uartstdio.c   ****                     ui32Count += pcString[-1] - '0';
 951:uartstdio.c   **** 
 952:uartstdio.c   ****                     //
 953:uartstdio.c   ****                     // Get the next character.
 954:uartstdio.c   ****                     //
 955:uartstdio.c   ****                     goto again;
 956:uartstdio.c   ****                 }
 957:uartstdio.c   **** 
 958:uartstdio.c   ****                 //
 959:uartstdio.c   ****                 // Handle the %c command.
 960:uartstdio.c   ****                 //
 961:uartstdio.c   ****                 case 'c':
 962:uartstdio.c   ****                 {
 963:uartstdio.c   ****                     //
 964:uartstdio.c   ****                     // Get the value from the varargs.
 965:uartstdio.c   ****                     //
 966:uartstdio.c   ****                     ui32Value = va_arg(vaArgP, uint32_t);
 967:uartstdio.c   **** 
 968:uartstdio.c   ****                     //
 969:uartstdio.c   ****                     // Print out the character.
 970:uartstdio.c   ****                     //
 971:uartstdio.c   ****                     UARTwrite((char *)&ui32Value, 1);
 972:uartstdio.c   **** 
 973:uartstdio.c   ****                     //
 974:uartstdio.c   ****                     // This command has been handled.
 975:uartstdio.c   ****                     //
 976:uartstdio.c   ****                     break;
 977:uartstdio.c   ****                 }
 978:uartstdio.c   **** 
 979:uartstdio.c   ****                 //
 980:uartstdio.c   ****                 // Handle the %d and %i commands.
 981:uartstdio.c   ****                 //
 982:uartstdio.c   ****                 case 'd':
 983:uartstdio.c   ****                 case 'i':
 984:uartstdio.c   ****                 {
 985:uartstdio.c   ****                     //
 986:uartstdio.c   ****                     // Get the value from the varargs.
 987:uartstdio.c   ****                     //
 988:uartstdio.c   ****                     ui32Value = va_arg(vaArgP, uint32_t);
 989:uartstdio.c   **** 
 990:uartstdio.c   ****                     //
 991:uartstdio.c   ****                     // Reset the buffer position.
 992:uartstdio.c   ****                     //
 993:uartstdio.c   ****                     ui32Pos = 0;
 994:uartstdio.c   **** 
 995:uartstdio.c   ****                     //
 996:uartstdio.c   ****                     // If the value is negative, make it positive and indicate
ARM GAS  C:\Users\Diogo\AppData\Local\Temp\ccjiAD3E.s 			page 27


 997:uartstdio.c   ****                     // that a minus sign is needed.
 998:uartstdio.c   ****                     //
 999:uartstdio.c   ****                     if((int32_t)ui32Value < 0)
1000:uartstdio.c   ****                     {
1001:uartstdio.c   ****                         //
1002:uartstdio.c   ****                         // Make the value positive.
1003:uartstdio.c   ****                         //
1004:uartstdio.c   ****                         ui32Value = -(int32_t)ui32Value;
1005:uartstdio.c   **** 
1006:uartstdio.c   ****                         //
1007:uartstdio.c   ****                         // Indicate that the value is negative.
1008:uartstdio.c   ****                         //
1009:uartstdio.c   ****                         ui32Neg = 1;
1010:uartstdio.c   ****                     }
1011:uartstdio.c   ****                     else
1012:uartstdio.c   ****                     {
1013:uartstdio.c   ****                         //
1014:uartstdio.c   ****                         // Indicate that the value is positive so that a minus
1015:uartstdio.c   ****                         // sign isn't inserted.
1016:uartstdio.c   ****                         //
1017:uartstdio.c   ****                         ui32Neg = 0;
1018:uartstdio.c   ****                     }
1019:uartstdio.c   **** 
1020:uartstdio.c   ****                     //
1021:uartstdio.c   ****                     // Set the base to 10.
1022:uartstdio.c   ****                     //
1023:uartstdio.c   ****                     ui32Base = 10;
1024:uartstdio.c   **** 
1025:uartstdio.c   ****                     //
1026:uartstdio.c   ****                     // Convert the value to ASCII.
1027:uartstdio.c   ****                     //
1028:uartstdio.c   ****                     goto convert;
1029:uartstdio.c   ****                 }
1030:uartstdio.c   **** 
1031:uartstdio.c   ****                 //
1032:uartstdio.c   ****                 // Handle the %s command.
1033:uartstdio.c   ****                 //
1034:uartstdio.c   ****                 case 's':
1035:uartstdio.c   ****                 {
1036:uartstdio.c   ****                     //
1037:uartstdio.c   ****                     // Get the string pointer from the varargs.
1038:uartstdio.c   ****                     //
1039:uartstdio.c   ****                     pcStr = va_arg(vaArgP, char *);
1040:uartstdio.c   **** 
1041:uartstdio.c   ****                     //
1042:uartstdio.c   ****                     // Determine the length of the string.
1043:uartstdio.c   ****                     //
1044:uartstdio.c   ****                     for(ui32Idx = 0; pcStr[ui32Idx] != '\0'; ui32Idx++)
1045:uartstdio.c   ****                     {
1046:uartstdio.c   ****                     }
1047:uartstdio.c   **** 
1048:uartstdio.c   ****                     //
1049:uartstdio.c   ****                     // Write the string.
1050:uartstdio.c   ****                     //
1051:uartstdio.c   ****                     UARTwrite(pcStr, ui32Idx);
1052:uartstdio.c   **** 
1053:uartstdio.c   ****                     //
ARM GAS  C:\Users\Diogo\AppData\Local\Temp\ccjiAD3E.s 			page 28


1054:uartstdio.c   ****                     // Write any required padding spaces
1055:uartstdio.c   ****                     //
1056:uartstdio.c   ****                     if(ui32Count > ui32Idx)
1057:uartstdio.c   ****                     {
1058:uartstdio.c   ****                         ui32Count -= ui32Idx;
1059:uartstdio.c   ****                         while(ui32Count--)
1060:uartstdio.c   ****                         {
1061:uartstdio.c   ****                             UARTwrite(" ", 1);
1062:uartstdio.c   ****                         }
1063:uartstdio.c   ****                     }
1064:uartstdio.c   **** 
1065:uartstdio.c   ****                     //
1066:uartstdio.c   ****                     // This command has been handled.
1067:uartstdio.c   ****                     //
1068:uartstdio.c   ****                     break;
1069:uartstdio.c   ****                 }
1070:uartstdio.c   **** 
1071:uartstdio.c   ****                 //
1072:uartstdio.c   ****                 // Handle the %u command.
1073:uartstdio.c   ****                 //
1074:uartstdio.c   ****                 case 'u':
1075:uartstdio.c   ****                 {
1076:uartstdio.c   ****                     //
1077:uartstdio.c   ****                     // Get the value from the varargs.
1078:uartstdio.c   ****                     //
1079:uartstdio.c   ****                     ui32Value = va_arg(vaArgP, uint32_t);
1080:uartstdio.c   **** 
1081:uartstdio.c   ****                     //
1082:uartstdio.c   ****                     // Reset the buffer position.
1083:uartstdio.c   ****                     //
1084:uartstdio.c   ****                     ui32Pos = 0;
1085:uartstdio.c   **** 
1086:uartstdio.c   ****                     //
1087:uartstdio.c   ****                     // Set the base to 10.
1088:uartstdio.c   ****                     //
1089:uartstdio.c   ****                     ui32Base = 10;
1090:uartstdio.c   **** 
1091:uartstdio.c   ****                     //
1092:uartstdio.c   ****                     // Indicate that the value is positive so that a minus sign
1093:uartstdio.c   ****                     // isn't inserted.
1094:uartstdio.c   ****                     //
1095:uartstdio.c   ****                     ui32Neg = 0;
1096:uartstdio.c   **** 
1097:uartstdio.c   ****                     //
1098:uartstdio.c   ****                     // Convert the value to ASCII.
1099:uartstdio.c   ****                     //
1100:uartstdio.c   ****                     goto convert;
1101:uartstdio.c   ****                 }
1102:uartstdio.c   **** 
1103:uartstdio.c   ****                 //
1104:uartstdio.c   ****                 // Handle the %x and %X commands.  Note that they are treated
1105:uartstdio.c   ****                 // identically; in other words, %X will use lower case letters
1106:uartstdio.c   ****                 // for a-f instead of the upper case letters it should use.  We
1107:uartstdio.c   ****                 // also alias %p to %x.
1108:uartstdio.c   ****                 //
1109:uartstdio.c   ****                 case 'x':
1110:uartstdio.c   ****                 case 'X':
ARM GAS  C:\Users\Diogo\AppData\Local\Temp\ccjiAD3E.s 			page 29


1111:uartstdio.c   ****                 case 'p':
1112:uartstdio.c   ****                 {
1113:uartstdio.c   ****                     //
1114:uartstdio.c   ****                     // Get the value from the varargs.
1115:uartstdio.c   ****                     //
1116:uartstdio.c   ****                     ui32Value = va_arg(vaArgP, uint32_t);
1117:uartstdio.c   **** 
1118:uartstdio.c   ****                     //
1119:uartstdio.c   ****                     // Reset the buffer position.
1120:uartstdio.c   ****                     //
1121:uartstdio.c   ****                     ui32Pos = 0;
1122:uartstdio.c   **** 
1123:uartstdio.c   ****                     //
1124:uartstdio.c   ****                     // Set the base to 16.
1125:uartstdio.c   ****                     //
1126:uartstdio.c   ****                     ui32Base = 16;
1127:uartstdio.c   **** 
1128:uartstdio.c   ****                     //
1129:uartstdio.c   ****                     // Indicate that the value is positive so that a minus sign
1130:uartstdio.c   ****                     // isn't inserted.
1131:uartstdio.c   ****                     //
1132:uartstdio.c   ****                     ui32Neg = 0;
1133:uartstdio.c   **** 
1134:uartstdio.c   ****                     //
1135:uartstdio.c   ****                     // Determine the number of digits in the string version of
1136:uartstdio.c   ****                     // the value.
1137:uartstdio.c   ****                     //
1138:uartstdio.c   **** convert:
1139:uartstdio.c   ****                     for(ui32Idx = 1;
1140:uartstdio.c   ****                         (((ui32Idx * ui32Base) <= ui32Value) &&
1141:uartstdio.c   ****                          (((ui32Idx * ui32Base) / ui32Base) == ui32Idx));
1142:uartstdio.c   ****                         ui32Idx *= ui32Base, ui32Count--)
1143:uartstdio.c   ****                     {
1144:uartstdio.c   ****                     }
1145:uartstdio.c   **** 
1146:uartstdio.c   ****                     //
1147:uartstdio.c   ****                     // If the value is negative, reduce the count of padding
1148:uartstdio.c   ****                     // characters needed.
1149:uartstdio.c   ****                     //
1150:uartstdio.c   ****                     if(ui32Neg)
1151:uartstdio.c   ****                     {
1152:uartstdio.c   ****                         ui32Count--;
1153:uartstdio.c   ****                     }
1154:uartstdio.c   **** 
1155:uartstdio.c   ****                     //
1156:uartstdio.c   ****                     // If the value is negative and the value is padded with
1157:uartstdio.c   ****                     // zeros, then place the minus sign before the padding.
1158:uartstdio.c   ****                     //
1159:uartstdio.c   ****                     if(ui32Neg && (cFill == '0'))
1160:uartstdio.c   ****                     {
1161:uartstdio.c   ****                         //
1162:uartstdio.c   ****                         // Place the minus sign in the output buffer.
1163:uartstdio.c   ****                         //
1164:uartstdio.c   ****                         pcBuf[ui32Pos++] = '-';
1165:uartstdio.c   **** 
1166:uartstdio.c   ****                         //
1167:uartstdio.c   ****                         // The minus sign has been placed, so turn off the
ARM GAS  C:\Users\Diogo\AppData\Local\Temp\ccjiAD3E.s 			page 30


1168:uartstdio.c   ****                         // negative flag.
1169:uartstdio.c   ****                         //
1170:uartstdio.c   ****                         ui32Neg = 0;
1171:uartstdio.c   ****                     }
1172:uartstdio.c   **** 
1173:uartstdio.c   ****                     //
1174:uartstdio.c   ****                     // Provide additional padding at the beginning of the
1175:uartstdio.c   ****                     // string conversion if needed.
1176:uartstdio.c   ****                     //
1177:uartstdio.c   ****                     if((ui32Count > 1) && (ui32Count < 16))
1178:uartstdio.c   ****                     {
1179:uartstdio.c   ****                         for(ui32Count--; ui32Count; ui32Count--)
1180:uartstdio.c   ****                         {
1181:uartstdio.c   ****                             pcBuf[ui32Pos++] = cFill;
1182:uartstdio.c   ****                         }
1183:uartstdio.c   ****                     }
1184:uartstdio.c   **** 
1185:uartstdio.c   ****                     //
1186:uartstdio.c   ****                     // If the value is negative, then place the minus sign
1187:uartstdio.c   ****                     // before the number.
1188:uartstdio.c   ****                     //
1189:uartstdio.c   ****                     if(ui32Neg)
1190:uartstdio.c   ****                     {
1191:uartstdio.c   ****                         //
1192:uartstdio.c   ****                         // Place the minus sign in the output buffer.
1193:uartstdio.c   ****                         //
1194:uartstdio.c   ****                         pcBuf[ui32Pos++] = '-';
1195:uartstdio.c   ****                     }
1196:uartstdio.c   **** 
1197:uartstdio.c   ****                     //
1198:uartstdio.c   ****                     // Convert the value into a string.
1199:uartstdio.c   ****                     //
1200:uartstdio.c   ****                     for(; ui32Idx; ui32Idx /= ui32Base)
1201:uartstdio.c   ****                     {
1202:uartstdio.c   ****                         pcBuf[ui32Pos++] =
1203:uartstdio.c   ****                             g_pcHex[(ui32Value / ui32Idx) % ui32Base];
1204:uartstdio.c   ****                     }
1205:uartstdio.c   **** 
1206:uartstdio.c   ****                     //
1207:uartstdio.c   ****                     // Write the string.
1208:uartstdio.c   ****                     //
1209:uartstdio.c   ****                     UARTwrite(pcBuf, ui32Pos);
1210:uartstdio.c   **** 
1211:uartstdio.c   ****                     //
1212:uartstdio.c   ****                     // This command has been handled.
1213:uartstdio.c   ****                     //
1214:uartstdio.c   ****                     break;
1215:uartstdio.c   ****                 }
1216:uartstdio.c   **** 
1217:uartstdio.c   ****                 //
1218:uartstdio.c   ****                 // Handle the %% command.
1219:uartstdio.c   ****                 //
1220:uartstdio.c   ****                 case '%':
1221:uartstdio.c   ****                 {
1222:uartstdio.c   ****                     //
1223:uartstdio.c   ****                     // Simply write a single %.
1224:uartstdio.c   ****                     //
ARM GAS  C:\Users\Diogo\AppData\Local\Temp\ccjiAD3E.s 			page 31


1225:uartstdio.c   ****                     UARTwrite(pcString - 1, 1);
1226:uartstdio.c   **** 
1227:uartstdio.c   ****                     //
1228:uartstdio.c   ****                     // This command has been handled.
1229:uartstdio.c   ****                     //
1230:uartstdio.c   ****                     break;
1231:uartstdio.c   ****                 }
1232:uartstdio.c   **** 
1233:uartstdio.c   ****                 //
1234:uartstdio.c   ****                 // Handle all other commands.
1235:uartstdio.c   ****                 //
1236:uartstdio.c   ****                 default:
1237:uartstdio.c   ****                 {
1238:uartstdio.c   ****                     //
1239:uartstdio.c   ****                     // Indicate an error.
1240:uartstdio.c   ****                     //
1241:uartstdio.c   ****                     UARTwrite("ERROR", 5);
 464              		.loc 1 1241 0
 465 01d0 DFF89892 		ldr	r9, .L106+8
1203:uartstdio.c   ****                     }
 466              		.loc 1 1203 0
 467 01d4 A34E     		ldr	r6, .L106
1061:uartstdio.c   ****                         }
 468              		.loc 1 1061 0
 469 01d6 DFF89882 		ldr	r8, .L106+12
 470 01da 55E1     		b	.L49
 471              	.LVL56:
 472              	.L98:
 868:uartstdio.c   **** 
 473              		.loc 1 868 0 discriminator 1
 474 01dc 4FF45971 		mov	r1, #868
 475              	.LVL57:
 476 01e0 A148     		ldr	r0, .L106+4
 477              	.LVL58:
 478 01e2 FFF7FEFF 		bl	__error__
 479              	.LVL59:
 480 01e6 F3E7     		b	.L45
 481              	.LVL60:
 482              	.L104:
 902:uartstdio.c   **** 
 483              		.loc 1 902 0
 484 01e8 601C     		adds	r0, r4, #1
 485              	.LVL61:
 909:uartstdio.c   **** 
 486              		.loc 1 909 0
 487 01ea 4FF0200E 		mov	lr, #32
 908:uartstdio.c   ****             cFill = ' ';
 488              		.loc 1 908 0
 489 01ee 4FF0000A 		mov	r10, #0
 490              	.LVL62:
 491              	.L50:
 921:uartstdio.c   ****             {
 492              		.loc 1 921 0
 493 01f2 0546     		mov	r5, r0
 494 01f4 15F8012B 		ldrb	r2, [r5], #1	@ zero_extendqisi2
 495 01f8 A2F12503 		sub	r3, r2, #37
 496 01fc 532B     		cmp	r3, #83
ARM GAS  C:\Users\Diogo\AppData\Local\Temp\ccjiAD3E.s 			page 32


 497 01fe 00F22A81 		bhi	.L51
 498 0202 DFE813F0 		tbh	[pc, r3, lsl #1]
 499              	.L53:
 500 0206 2401     		.2byte	(.L52-.L53)/2
 501 0208 2801     		.2byte	(.L51-.L53)/2
 502 020a 2801     		.2byte	(.L51-.L53)/2
 503 020c 2801     		.2byte	(.L51-.L53)/2
 504 020e 2801     		.2byte	(.L51-.L53)/2
 505 0210 2801     		.2byte	(.L51-.L53)/2
 506 0212 2801     		.2byte	(.L51-.L53)/2
 507 0214 2801     		.2byte	(.L51-.L53)/2
 508 0216 2801     		.2byte	(.L51-.L53)/2
 509 0218 2801     		.2byte	(.L51-.L53)/2
 510 021a 2801     		.2byte	(.L51-.L53)/2
 511 021c 5400     		.2byte	(.L54-.L53)/2
 512 021e 5400     		.2byte	(.L54-.L53)/2
 513 0220 5400     		.2byte	(.L54-.L53)/2
 514 0222 5400     		.2byte	(.L54-.L53)/2
 515 0224 5400     		.2byte	(.L54-.L53)/2
 516 0226 5400     		.2byte	(.L54-.L53)/2
 517 0228 5400     		.2byte	(.L54-.L53)/2
 518 022a 5400     		.2byte	(.L54-.L53)/2
 519 022c 5400     		.2byte	(.L54-.L53)/2
 520 022e 5400     		.2byte	(.L54-.L53)/2
 521 0230 2801     		.2byte	(.L51-.L53)/2
 522 0232 2801     		.2byte	(.L51-.L53)/2
 523 0234 2801     		.2byte	(.L51-.L53)/2
 524 0236 2801     		.2byte	(.L51-.L53)/2
 525 0238 2801     		.2byte	(.L51-.L53)/2
 526 023a 2801     		.2byte	(.L51-.L53)/2
 527 023c 2801     		.2byte	(.L51-.L53)/2
 528 023e 2801     		.2byte	(.L51-.L53)/2
 529 0240 2801     		.2byte	(.L51-.L53)/2
 530 0242 2801     		.2byte	(.L51-.L53)/2
 531 0244 2801     		.2byte	(.L51-.L53)/2
 532 0246 2801     		.2byte	(.L51-.L53)/2
 533 0248 2801     		.2byte	(.L51-.L53)/2
 534 024a 2801     		.2byte	(.L51-.L53)/2
 535 024c 2801     		.2byte	(.L51-.L53)/2
 536 024e 2801     		.2byte	(.L51-.L53)/2
 537 0250 2801     		.2byte	(.L51-.L53)/2
 538 0252 2801     		.2byte	(.L51-.L53)/2
 539 0254 2801     		.2byte	(.L51-.L53)/2
 540 0256 2801     		.2byte	(.L51-.L53)/2
 541 0258 2801     		.2byte	(.L51-.L53)/2
 542 025a 2801     		.2byte	(.L51-.L53)/2
 543 025c 2801     		.2byte	(.L51-.L53)/2
 544 025e 2801     		.2byte	(.L51-.L53)/2
 545 0260 2801     		.2byte	(.L51-.L53)/2
 546 0262 2801     		.2byte	(.L51-.L53)/2
 547 0264 2801     		.2byte	(.L51-.L53)/2
 548 0266 2801     		.2byte	(.L51-.L53)/2
 549 0268 2801     		.2byte	(.L51-.L53)/2
 550 026a 2801     		.2byte	(.L51-.L53)/2
 551 026c B600     		.2byte	(.L55-.L53)/2
 552 026e 2801     		.2byte	(.L51-.L53)/2
 553 0270 2801     		.2byte	(.L51-.L53)/2
ARM GAS  C:\Users\Diogo\AppData\Local\Temp\ccjiAD3E.s 			page 33


 554 0272 2801     		.2byte	(.L51-.L53)/2
 555 0274 2801     		.2byte	(.L51-.L53)/2
 556 0276 2801     		.2byte	(.L51-.L53)/2
 557 0278 2801     		.2byte	(.L51-.L53)/2
 558 027a 2801     		.2byte	(.L51-.L53)/2
 559 027c 2801     		.2byte	(.L51-.L53)/2
 560 027e 2801     		.2byte	(.L51-.L53)/2
 561 0280 2801     		.2byte	(.L51-.L53)/2
 562 0282 6400     		.2byte	(.L56-.L53)/2
 563 0284 6E00     		.2byte	(.L57-.L53)/2
 564 0286 2801     		.2byte	(.L51-.L53)/2
 565 0288 2801     		.2byte	(.L51-.L53)/2
 566 028a 2801     		.2byte	(.L51-.L53)/2
 567 028c 2801     		.2byte	(.L51-.L53)/2
 568 028e 6E00     		.2byte	(.L57-.L53)/2
 569 0290 2801     		.2byte	(.L51-.L53)/2
 570 0292 2801     		.2byte	(.L51-.L53)/2
 571 0294 2801     		.2byte	(.L51-.L53)/2
 572 0296 2801     		.2byte	(.L51-.L53)/2
 573 0298 2801     		.2byte	(.L51-.L53)/2
 574 029a 2801     		.2byte	(.L51-.L53)/2
 575 029c B600     		.2byte	(.L55-.L53)/2
 576 029e 2801     		.2byte	(.L51-.L53)/2
 577 02a0 2801     		.2byte	(.L51-.L53)/2
 578 02a2 8500     		.2byte	(.L58-.L53)/2
 579 02a4 2801     		.2byte	(.L51-.L53)/2
 580 02a6 AB00     		.2byte	(.L59-.L53)/2
 581 02a8 2801     		.2byte	(.L51-.L53)/2
 582 02aa 2801     		.2byte	(.L51-.L53)/2
 583 02ac B600     		.2byte	(.L55-.L53)/2
 584              		.p2align 1
 585              	.L54:
 941:uartstdio.c   ****                     {
 586              		.loc 1 941 0
 587 02ae 302A     		cmp	r2, #48
 588 02b0 07D0     		beq	.L99
 589              	.LVL63:
 590              	.L60:
 949:uartstdio.c   ****                     ui32Count += pcString[-1] - '0';
 591              		.loc 1 949 0
 592 02b2 0AEB8A0A 		add	r10, r10, r10, lsl #2
 593              	.LVL64:
 594 02b6 02EB4A02 		add	r2, r2, r10, lsl #1
 950:uartstdio.c   **** 
 595              		.loc 1 950 0
 596 02ba A2F1300A 		sub	r10, r2, #48
 597              	.LVL65:
 921:uartstdio.c   ****             {
 598              		.loc 1 921 0
 599 02be 2846     		mov	r0, r5
 600              	.LVL66:
 955:uartstdio.c   ****                 }
 601              		.loc 1 955 0
 602 02c0 97E7     		b	.L50
 603              	.LVL67:
 604              	.L99:
 943:uartstdio.c   ****                     }
ARM GAS  C:\Users\Diogo\AppData\Local\Temp\ccjiAD3E.s 			page 34


 605              		.loc 1 943 0 discriminator 1
 606 02c2 BAF1000F 		cmp	r10, #0
 607 02c6 08BF     		it	eq
 608 02c8 4FF0300E 		moveq	lr, #48
 609              	.LVL68:
 610 02cc F1E7     		b	.L60
 611              	.LVL69:
 612              	.L56:
 966:uartstdio.c   **** 
 613              		.loc 1 966 0
 614 02ce 3C1D     		adds	r4, r7, #4
 615              	.LVL70:
 616 02d0 3B68     		ldr	r3, [r7]
 617 02d2 06A8     		add	r0, sp, #24
 618              	.LVL71:
 619 02d4 40F8043D 		str	r3, [r0, #-4]!
 971:uartstdio.c   **** 
 620              		.loc 1 971 0
 621 02d8 0121     		movs	r1, #1
 622 02da FFF7FEFF 		bl	UARTwrite
 623              	.LVL72:
 966:uartstdio.c   **** 
 624              		.loc 1 966 0
 625 02de 2746     		mov	r7, r4
 976:uartstdio.c   ****                 }
 626              		.loc 1 976 0
 627 02e0 D2E0     		b	.L49
 628              	.LVL73:
 629              	.L57:
 988:uartstdio.c   **** 
 630              		.loc 1 988 0
 631 02e2 3B1D     		adds	r3, r7, #4
 632              	.LVL74:
 633 02e4 3A68     		ldr	r2, [r7]
 634              	.LVL75:
 999:uartstdio.c   ****                     {
 635              		.loc 1 999 0
 636 02e6 002A     		cmp	r2, #0
 637 02e8 03DB     		blt	.L62
 988:uartstdio.c   **** 
 638              		.loc 1 988 0
 639 02ea 0592     		str	r2, [sp, #20]
 640 02ec 1F46     		mov	r7, r3
1023:uartstdio.c   **** 
 641              		.loc 1 1023 0
 642 02ee 0A22     		movs	r2, #10
 643 02f0 38E0     		b	.L63
 644              	.L62:
1004:uartstdio.c   **** 
 645              		.loc 1 1004 0
 646 02f2 C2F1000C 		rsb	ip, r2, #0
 647 02f6 CDF814C0 		str	ip, [sp, #20]
 648              	.LVL76:
1139:uartstdio.c   ****                         (((ui32Idx * ui32Base) <= ui32Value) &&
 649              		.loc 1 1139 0
 650 02fa BCF1090F 		cmp	ip, #9
 651 02fe 03D9     		bls	.L100
ARM GAS  C:\Users\Diogo\AppData\Local\Temp\ccjiAD3E.s 			page 35


 988:uartstdio.c   **** 
 652              		.loc 1 988 0
 653 0300 1F46     		mov	r7, r3
1009:uartstdio.c   ****                     }
 654              		.loc 1 1009 0
 655 0302 0124     		movs	r4, #1
1023:uartstdio.c   **** 
 656              		.loc 1 1023 0
 657 0304 0A22     		movs	r2, #10
 658 0306 32E0     		b	.L64
 659              	.L100:
 988:uartstdio.c   **** 
 660              		.loc 1 988 0
 661 0308 1F46     		mov	r7, r3
1139:uartstdio.c   ****                         (((ui32Idx * ui32Base) <= ui32Value) &&
 662              		.loc 1 1139 0
 663 030a 0123     		movs	r3, #1
 664              	.LVL77:
1023:uartstdio.c   **** 
 665              		.loc 1 1023 0
 666 030c 0A22     		movs	r2, #10
 667 030e 41E0     		b	.L65
 668              	.LVL78:
 669              	.L58:
1039:uartstdio.c   **** 
 670              		.loc 1 1039 0
 671 0310 07F1040B 		add	fp, r7, #4
 672              	.LVL79:
 673 0314 3868     		ldr	r0, [r7]
 674              	.LVL80:
1044:uartstdio.c   ****                     {
 675              		.loc 1 1044 0
 676 0316 0378     		ldrb	r3, [r0]	@ zero_extendqisi2
 677 0318 6BB1     		cbz	r3, .L83
 678 031a 0346     		mov	r3, r0
 679 031c 0024     		movs	r4, #0
 680              	.LVL81:
 681              	.L67:
1044:uartstdio.c   ****                     {
 682              		.loc 1 1044 0 is_stmt 0 discriminator 3
 683 031e 0134     		adds	r4, r4, #1
 684              	.LVL82:
 685 0320 13F8012F 		ldrb	r2, [r3, #1]!	@ zero_extendqisi2
 686 0324 002A     		cmp	r2, #0
 687 0326 FAD1     		bne	.L67
 688              	.LVL83:
 689              	.L66:
1051:uartstdio.c   **** 
 690              		.loc 1 1051 0 is_stmt 1
 691 0328 2146     		mov	r1, r4
 692 032a FFF7FEFF 		bl	UARTwrite
 693              	.LVL84:
1056:uartstdio.c   ****                     {
 694              		.loc 1 1056 0
 695 032e A245     		cmp	r10, r4
 696 0330 03D8     		bhi	.L101
1039:uartstdio.c   **** 
ARM GAS  C:\Users\Diogo\AppData\Local\Temp\ccjiAD3E.s 			page 36


 697              		.loc 1 1039 0
 698 0332 5F46     		mov	r7, fp
 699 0334 A8E0     		b	.L49
 700              	.LVL85:
 701              	.L83:
1044:uartstdio.c   ****                     {
 702              		.loc 1 1044 0
 703 0336 0024     		movs	r4, #0
 704 0338 F6E7     		b	.L66
 705              	.LVL86:
 706              	.L101:
1058:uartstdio.c   ****                         while(ui32Count--)
 707              		.loc 1 1058 0
 708 033a AAEB0404 		sub	r4, r10, r4
 709              	.LVL87:
1059:uartstdio.c   ****                         {
 710              		.loc 1 1059 0
 711 033e 671E     		subs	r7, r4, #1
 712              	.LVL88:
 713 0340 002C     		cmp	r4, #0
 714 0342 00F08D80 		beq	.L85
1061:uartstdio.c   ****                         }
 715              		.loc 1 1061 0
 716 0346 0124     		movs	r4, #1
 717              	.L68:
 718 0348 2146     		mov	r1, r4
 719 034a 4046     		mov	r0, r8
 720 034c FFF7FEFF 		bl	UARTwrite
 721              	.LVL89:
1059:uartstdio.c   ****                         {
 722              		.loc 1 1059 0
 723 0350 013F     		subs	r7, r7, #1
 724              	.LVL90:
 725 0352 B7F1FF3F 		cmp	r7, #-1
 726 0356 F7D1     		bne	.L68
1039:uartstdio.c   **** 
 727              		.loc 1 1039 0
 728 0358 5F46     		mov	r7, fp
 729              	.LVL91:
 730 035a 95E0     		b	.L49
 731              	.LVL92:
 732              	.L59:
1079:uartstdio.c   **** 
 733              		.loc 1 1079 0
 734 035c 3B68     		ldr	r3, [r7]
 735 035e 0593     		str	r3, [sp, #20]
 736              	.LVL93:
 737 0360 0437     		adds	r7, r7, #4
 738              	.LVL94:
1089:uartstdio.c   **** 
 739              		.loc 1 1089 0
 740 0362 0A22     		movs	r2, #10
 741              	.LVL95:
 742              	.L63:
1140:uartstdio.c   ****                          (((ui32Idx * ui32Base) / ui32Base) == ui32Idx));
 743              		.loc 1 1140 0
 744 0364 DDF814C0 		ldr	ip, [sp, #20]
ARM GAS  C:\Users\Diogo\AppData\Local\Temp\ccjiAD3E.s 			page 37


1139:uartstdio.c   ****                         (((ui32Idx * ui32Base) <= ui32Value) &&
 745              		.loc 1 1139 0
 746 0368 6245     		cmp	r2, ip
 747 036a 29D8     		bhi	.L86
 748 036c 0024     		movs	r4, #0
 749              	.LVL96:
 750              	.L64:
1140:uartstdio.c   ****                          (((ui32Idx * ui32Base) / ui32Base) == ui32Idx));
 751              		.loc 1 1140 0
 752 036e 1346     		mov	r3, r2
 753 0370 05E0     		b	.L71
 754              	.LVL97:
 755              	.L55:
1116:uartstdio.c   **** 
 756              		.loc 1 1116 0
 757 0372 3B68     		ldr	r3, [r7]
 758 0374 0593     		str	r3, [sp, #20]
 759              	.LVL98:
 760 0376 0437     		adds	r7, r7, #4
 761              	.LVL99:
1126:uartstdio.c   **** 
 762              		.loc 1 1126 0
 763 0378 1022     		movs	r2, #16
 764 037a F3E7     		b	.L63
 765              	.LVL100:
 766              	.L87:
1140:uartstdio.c   ****                          (((ui32Idx * ui32Base) / ui32Base) == ui32Idx));
 767              		.loc 1 1140 0
 768 037c 0B46     		mov	r3, r1
 769              	.LVL101:
 770              	.L71:
1142:uartstdio.c   ****                     {
 771              		.loc 1 1142 0
 772 037e 0AF1FF3A 		add	r10, r10, #-1
 773              	.LVL102:
1140:uartstdio.c   ****                          (((ui32Idx * ui32Base) / ui32Base) == ui32Idx));
 774              		.loc 1 1140 0
 775 0382 02FB03F1 		mul	r1, r2, r3
1139:uartstdio.c   ****                         (((ui32Idx * ui32Base) <= ui32Value) &&
 776              		.loc 1 1139 0
 777 0386 6145     		cmp	r1, ip
 778 0388 03D8     		bhi	.L70
1141:uartstdio.c   ****                         ui32Idx *= ui32Base, ui32Count--)
 779              		.loc 1 1141 0
 780 038a B1FBF2F0 		udiv	r0, r1, r2
1140:uartstdio.c   ****                          (((ui32Idx * ui32Base) / ui32Base) == ui32Idx));
 781              		.loc 1 1140 0
 782 038e 9842     		cmp	r0, r3
 783 0390 F4D0     		beq	.L87
 784              	.L70:
1150:uartstdio.c   ****                     {
 785              		.loc 1 1150 0
 786 0392 B4B1     		cbz	r4, .L69
 787              	.LVL103:
 788              	.L65:
1152:uartstdio.c   ****                     }
 789              		.loc 1 1152 0
ARM GAS  C:\Users\Diogo\AppData\Local\Temp\ccjiAD3E.s 			page 38


 790 0394 0AF1FF31 		add	r1, r10, #-1
 791              	.LVL104:
1159:uartstdio.c   ****                     {
 792              		.loc 1 1159 0
 793 0398 BEF1300F 		cmp	lr, #48
 794 039c 06D0     		beq	.L102
 795              	.LVL105:
1177:uartstdio.c   ****                     {
 796              		.loc 1 1177 0
 797 039e AAF1030A 		sub	r10, r10, #3
 798 03a2 BAF10D0F 		cmp	r10, #13
 799 03a6 4BD9     		bls	.L91
 800 03a8 0020     		movs	r0, #0
 801 03aa 26E0     		b	.L81
 802              	.LVL106:
 803              	.L102:
1164:uartstdio.c   **** 
 804              		.loc 1 1164 0
 805 03ac 2D20     		movs	r0, #45
 806 03ae 8DF80400 		strb	r0, [sp, #4]
 807              	.LVL107:
1177:uartstdio.c   ****                     {
 808              		.loc 1 1177 0
 809 03b2 AAF1030A 		sub	r10, r10, #3
 810 03b6 BAF10D0F 		cmp	r10, #13
 811 03ba 3CD9     		bls	.L88
1164:uartstdio.c   **** 
 812              		.loc 1 1164 0
 813 03bc 0121     		movs	r1, #1
 814              	.LVL108:
 815 03be 22E0     		b	.L74
 816              	.LVL109:
 817              	.L86:
1139:uartstdio.c   ****                         (((ui32Idx * ui32Base) <= ui32Value) &&
 818              		.loc 1 1139 0
 819 03c0 0123     		movs	r3, #1
 820              	.LVL110:
 821              	.L69:
1177:uartstdio.c   ****                     {
 822              		.loc 1 1177 0
 823 03c2 AAF10201 		sub	r1, r10, #2
 824 03c6 0D29     		cmp	r1, #13
 825 03c8 01D9     		bls	.L103
 826 03ca 0021     		movs	r1, #0
 827 03cc 1BE0     		b	.L74
 828              	.L103:
 829 03ce 4FF0000B 		mov	fp, #0
 830 03d2 5846     		mov	r0, fp
 831              	.LVL111:
 832              	.L73:
1179:uartstdio.c   ****                         {
 833              		.loc 1 1179 0
 834 03d4 BAF1010F 		cmp	r10, #1
 835 03d8 0CD0     		beq	.L75
 836 03da 06A9     		add	r1, sp, #24
 837 03dc 0144     		add	r1, r1, r0
 838 03de 1539     		subs	r1, r1, #21
ARM GAS  C:\Users\Diogo\AppData\Local\Temp\ccjiAD3E.s 			page 39


 839 03e0 0DF10204 		add	r4, sp, #2
 840 03e4 0444     		add	r4, r4, r0
 841 03e6 5444     		add	r4, r4, r10
 842              	.LVL112:
 843              	.L76:
1181:uartstdio.c   ****                         }
 844              		.loc 1 1181 0 discriminator 3
 845 03e8 01F801EF 		strb	lr, [r1, #1]!
 846              	.LVL113:
1179:uartstdio.c   ****                         {
 847              		.loc 1 1179 0 discriminator 3
 848 03ec A142     		cmp	r1, r4
 849 03ee FBD1     		bne	.L76
 850 03f0 5044     		add	r0, r0, r10
 851 03f2 0138     		subs	r0, r0, #1
 852              	.LVL114:
 853              	.L75:
1189:uartstdio.c   ****                     {
 854              		.loc 1 1189 0
 855 03f4 BBF1000F 		cmp	fp, #0
 856 03f8 27D0     		beq	.L90
 857              	.LVL115:
 858              	.L81:
1194:uartstdio.c   ****                     }
 859              		.loc 1 1194 0
 860 03fa 411C     		adds	r1, r0, #1
 861              	.LVL116:
 862 03fc 06AC     		add	r4, sp, #24
 863 03fe 2044     		add	r0, r0, r4
 864 0400 2D24     		movs	r4, #45
 865 0402 00F8144C 		strb	r4, [r0, #-20]
 866              	.LVL117:
 867              	.L74:
1200:uartstdio.c   ****                     {
 868              		.loc 1 1200 0 discriminator 1
 869 0406 93B1     		cbz	r3, .L77
 870 0408 06A8     		add	r0, sp, #24
 871 040a 00EB010E 		add	lr, r0, r1
 872              	.LVL118:
 873 040e AEF1150E 		sub	lr, lr, #21
 874              	.L78:
1202:uartstdio.c   ****                             g_pcHex[(ui32Value / ui32Idx) % ui32Base];
 875              		.loc 1 1202 0 discriminator 2
 876 0412 0131     		adds	r1, r1, #1
 877              	.LVL119:
1203:uartstdio.c   ****                     }
 878              		.loc 1 1203 0 discriminator 2
 879 0414 BCFBF3F4 		udiv	r4, ip, r3
 880 0418 B4FBF2F0 		udiv	r0, r4, r2
 881 041c 02FB1040 		mls	r0, r2, r0, r4
1202:uartstdio.c   ****                             g_pcHex[(ui32Value / ui32Idx) % ui32Base];
 882              		.loc 1 1202 0 discriminator 2
 883 0420 805D     		ldrb	r0, [r0, r6]	@ zero_extendqisi2
 884 0422 0EF8010F 		strb	r0, [lr, #1]!
1200:uartstdio.c   ****                     {
 885              		.loc 1 1200 0 discriminator 2
 886 0426 B3FBF2F3 		udiv	r3, r3, r2
ARM GAS  C:\Users\Diogo\AppData\Local\Temp\ccjiAD3E.s 			page 40


 887              	.LVL120:
 888 042a 002B     		cmp	r3, #0
 889 042c F1D1     		bne	.L78
 890              	.L77:
1209:uartstdio.c   **** 
 891              		.loc 1 1209 0
 892 042e 01A8     		add	r0, sp, #4
 893 0430 FFF7FEFF 		bl	UARTwrite
 894              	.LVL121:
1214:uartstdio.c   ****                 }
 895              		.loc 1 1214 0
 896 0434 28E0     		b	.L49
 897              	.LVL122:
 898              	.L88:
1152:uartstdio.c   ****                     }
 899              		.loc 1 1152 0
 900 0436 8A46     		mov	r10, r1
1170:uartstdio.c   ****                     }
 901              		.loc 1 1170 0
 902 0438 4FF0000B 		mov	fp, #0
1164:uartstdio.c   **** 
 903              		.loc 1 1164 0
 904 043c 0120     		movs	r0, #1
 905 043e C9E7     		b	.L73
 906              	.LVL123:
 907              	.L91:
1152:uartstdio.c   ****                     }
 908              		.loc 1 1152 0
 909 0440 8A46     		mov	r10, r1
1177:uartstdio.c   ****                     {
 910              		.loc 1 1177 0
 911 0442 4FF0010B 		mov	fp, #1
 912 0446 0020     		movs	r0, #0
 913 0448 C4E7     		b	.L73
 914              	.LVL124:
 915              	.L90:
 916 044a 0146     		mov	r1, r0
 917 044c DBE7     		b	.L74
 918              	.LVL125:
 919              	.L52:
1225:uartstdio.c   **** 
 920              		.loc 1 1225 0
 921 044e 0121     		movs	r1, #1
 922 0450 FFF7FEFF 		bl	UARTwrite
 923              	.LVL126:
1230:uartstdio.c   ****                 }
 924              		.loc 1 1230 0
 925 0454 18E0     		b	.L49
 926              	.LVL127:
 927              	.L51:
 928              		.loc 1 1241 0
 929 0456 0521     		movs	r1, #5
 930 0458 4846     		mov	r0, r9
 931              	.LVL128:
 932 045a FFF7FEFF 		bl	UARTwrite
 933              	.LVL129:
1242:uartstdio.c   **** 
ARM GAS  C:\Users\Diogo\AppData\Local\Temp\ccjiAD3E.s 			page 41


1243:uartstdio.c   ****                     //
1244:uartstdio.c   ****                     // This command has been handled.
1245:uartstdio.c   ****                     //
1246:uartstdio.c   ****                     break;
 934              		.loc 1 1246 0
 935 045e 13E0     		b	.L49
 936              	.LVL130:
 937              	.L85:
1039:uartstdio.c   **** 
 938              		.loc 1 1039 0
 939 0460 5F46     		mov	r7, fp
 940              	.LVL131:
 941 0462 11E0     		b	.L49
 942              	.L107:
 943              		.align	2
 944              	.L106:
 945 0464 18000000 		.word	.LC4
 946 0468 00000000 		.word	.LC0
 947 046c 2C000000 		.word	.LC5
 948 0470 14000000 		.word	.LC3
 949              	.LVL132:
 950              	.L105:
 879:uartstdio.c   ****             ui32Idx++)
 951              		.loc 1 879 0
 952 0474 2C46     		mov	r4, r5
 878:uartstdio.c   ****             (pcString[ui32Idx] != '%') && (pcString[ui32Idx] != '\0');
 953              		.loc 1 878 0
 954 0476 0021     		movs	r1, #0
 955              	.LVL133:
 956              	.L47:
 887:uartstdio.c   **** 
 957              		.loc 1 887 0
 958 0478 2846     		mov	r0, r5
 959 047a FFF7FEFF 		bl	UARTwrite
 960              	.LVL134:
 961 047e 2546     		mov	r5, r4
 897:uartstdio.c   ****         {
 962              		.loc 1 897 0
 963 0480 2378     		ldrb	r3, [r4]	@ zero_extendqisi2
 964 0482 252B     		cmp	r3, #37
 965 0484 3FF4B0AE 		beq	.L104
 966              	.LVL135:
 967              	.L49:
 873:uartstdio.c   ****     {
 968              		.loc 1 873 0
 969 0488 2B78     		ldrb	r3, [r5]	@ zero_extendqisi2
 970 048a 63B1     		cbz	r3, .L44
 971              	.LVL136:
 878:uartstdio.c   ****             (pcString[ui32Idx] != '%') && (pcString[ui32Idx] != '\0');
 972              		.loc 1 878 0
 973 048c 252B     		cmp	r3, #37
 974 048e F1D0     		beq	.L105
 975 0490 6B1C     		adds	r3, r5, #1
 976 0492 0021     		movs	r1, #0
 977              	.LVL137:
 978              	.L48:
 880:uartstdio.c   ****         {
ARM GAS  C:\Users\Diogo\AppData\Local\Temp\ccjiAD3E.s 			page 42


 979              		.loc 1 880 0
 980 0494 0131     		adds	r1, r1, #1
 981              	.LVL138:
 879:uartstdio.c   ****             ui32Idx++)
 982              		.loc 1 879 0
 983 0496 1C46     		mov	r4, r3
 984 0498 13F8012B 		ldrb	r2, [r3], #1	@ zero_extendqisi2
 878:uartstdio.c   ****             (pcString[ui32Idx] != '%') && (pcString[ui32Idx] != '\0');
 985              		.loc 1 878 0
 986 049c 252A     		cmp	r2, #37
 987 049e EBD0     		beq	.L47
 879:uartstdio.c   ****             ui32Idx++)
 988              		.loc 1 879 0
 989 04a0 002A     		cmp	r2, #0
 990 04a2 F7D1     		bne	.L48
 991 04a4 E8E7     		b	.L47
 992              	.LVL139:
 993              	.L44:
1247:uartstdio.c   ****                 }
1248:uartstdio.c   ****             }
1249:uartstdio.c   ****         }
1250:uartstdio.c   ****     }
1251:uartstdio.c   **** }
 994              		.loc 1 1251 0
 995 04a6 07B0     		add	sp, sp, #28
 996              	.LCFI6:
 997              		.cfi_def_cfa_offset 36
 998              		@ sp needed
 999 04a8 BDE8F08F 		pop	{r4, r5, r6, r7, r8, r9, r10, fp, pc}
 1000              		.cfi_endproc
 1001              	.LFE4:
 1002              		.size	UARTvprintf, .-UARTvprintf
 1003              		.align	1
 1004              		.global	UARTprintf
 1005              		.syntax unified
 1006              		.thumb
 1007              		.thumb_func
 1008              		.fpu softvfp
 1009              		.type	UARTprintf, %function
 1010              	UARTprintf:
 1011              	.LFB5:
1252:uartstdio.c   **** 
1253:uartstdio.c   **** //*****************************************************************************
1254:uartstdio.c   **** //
1255:uartstdio.c   **** //! A simple UART based printf function supporting \%c, \%d, \%p, \%s, \%u,
1256:uartstdio.c   **** //! \%x, and \%X.
1257:uartstdio.c   **** //!
1258:uartstdio.c   **** //! \param pcString is the format string.
1259:uartstdio.c   **** //! \param ... are the optional arguments, which depend on the contents of the
1260:uartstdio.c   **** //! format string.
1261:uartstdio.c   **** //!
1262:uartstdio.c   **** //! This function is very similar to the C library <tt>fprintf()</tt> function.
1263:uartstdio.c   **** //! All of its output will be sent to the UART.  Only the following formatting
1264:uartstdio.c   **** //! characters are supported:
1265:uartstdio.c   **** //!
1266:uartstdio.c   **** //! - \%c to print a character
1267:uartstdio.c   **** //! - \%d or \%i to print a decimal value
ARM GAS  C:\Users\Diogo\AppData\Local\Temp\ccjiAD3E.s 			page 43


1268:uartstdio.c   **** //! - \%s to print a string
1269:uartstdio.c   **** //! - \%u to print an unsigned decimal value
1270:uartstdio.c   **** //! - \%x to print a hexadecimal value using lower case letters
1271:uartstdio.c   **** //! - \%X to print a hexadecimal value using lower case letters (not upper case
1272:uartstdio.c   **** //! letters as would typically be used)
1273:uartstdio.c   **** //! - \%p to print a pointer as a hexadecimal value
1274:uartstdio.c   **** //! - \%\% to print out a \% character
1275:uartstdio.c   **** //!
1276:uartstdio.c   **** //! For \%s, \%d, \%i, \%u, \%p, \%x, and \%X, an optional number may reside
1277:uartstdio.c   **** //! between the \% and the format character, which specifies the minimum number
1278:uartstdio.c   **** //! of characters to use for that value; if preceded by a 0 then the extra
1279:uartstdio.c   **** //! characters will be filled with zeros instead of spaces.  For example,
1280:uartstdio.c   **** //! ``\%8d'' will use eight characters to print the decimal value with spaces
1281:uartstdio.c   **** //! added to reach eight; ``\%08d'' will use eight characters as well but will
1282:uartstdio.c   **** //! add zeroes instead of spaces.
1283:uartstdio.c   **** //!
1284:uartstdio.c   **** //! The type of the arguments after \e pcString must match the requirements of
1285:uartstdio.c   **** //! the format string.  For example, if an integer was passed where a string
1286:uartstdio.c   **** //! was expected, an error of some kind will most likely occur.
1287:uartstdio.c   **** //!
1288:uartstdio.c   **** //! \return None.
1289:uartstdio.c   **** //
1290:uartstdio.c   **** //*****************************************************************************
1291:uartstdio.c   **** void
1292:uartstdio.c   **** UARTprintf(const char *pcString, ...)
1293:uartstdio.c   **** {
 1012              		.loc 1 1293 0
 1013              		.cfi_startproc
 1014              		@ args = 4, pretend = 16, frame = 8
 1015              		@ frame_needed = 0, uses_anonymous_args = 1
 1016              	.LVL140:
 1017 04ac 0FB4     		push	{r0, r1, r2, r3}
 1018              	.LCFI7:
 1019              		.cfi_def_cfa_offset 16
 1020              		.cfi_offset 0, -16
 1021              		.cfi_offset 1, -12
 1022              		.cfi_offset 2, -8
 1023              		.cfi_offset 3, -4
 1024 04ae 00B5     		push	{lr}
 1025              	.LCFI8:
 1026              		.cfi_def_cfa_offset 20
 1027              		.cfi_offset 14, -20
 1028 04b0 83B0     		sub	sp, sp, #12
 1029              	.LCFI9:
 1030              		.cfi_def_cfa_offset 32
 1031 04b2 04A9     		add	r1, sp, #16
 1032 04b4 51F8040B 		ldr	r0, [r1], #4
1294:uartstdio.c   ****     va_list vaArgP;
1295:uartstdio.c   **** 
1296:uartstdio.c   ****     //
1297:uartstdio.c   ****     // Start the varargs processing.
1298:uartstdio.c   ****     //
1299:uartstdio.c   ****     va_start(vaArgP, pcString);
 1033              		.loc 1 1299 0
 1034 04b8 0191     		str	r1, [sp, #4]
1300:uartstdio.c   **** 
1301:uartstdio.c   ****     UARTvprintf(pcString, vaArgP);
ARM GAS  C:\Users\Diogo\AppData\Local\Temp\ccjiAD3E.s 			page 44


 1035              		.loc 1 1301 0
 1036 04ba FFF7FEFF 		bl	UARTvprintf
 1037              	.LVL141:
1302:uartstdio.c   **** 
1303:uartstdio.c   ****     //
1304:uartstdio.c   ****     // We're finished with the varargs now.
1305:uartstdio.c   ****     //
1306:uartstdio.c   ****     va_end(vaArgP);
1307:uartstdio.c   **** }
 1038              		.loc 1 1307 0
 1039 04be 03B0     		add	sp, sp, #12
 1040              	.LCFI10:
 1041              		.cfi_def_cfa_offset 20
 1042              		@ sp needed
 1043 04c0 5DF804EB 		ldr	lr, [sp], #4
 1044              	.LCFI11:
 1045              		.cfi_restore 14
 1046              		.cfi_def_cfa_offset 16
 1047 04c4 04B0     		add	sp, sp, #16
 1048              	.LCFI12:
 1049              		.cfi_restore 3
 1050              		.cfi_restore 2
 1051              		.cfi_restore 1
 1052              		.cfi_restore 0
 1053              		.cfi_def_cfa_offset 0
 1054 04c6 7047     		bx	lr
 1055              		.cfi_endproc
 1056              	.LFE5:
 1057              		.size	UARTprintf, .-UARTprintf
 1058              		.section	.rodata
 1059              		.align	2
 1060              		.set	.LANCHOR0,. + 0
 1061              		.type	g_ui32UARTPeriph, %object
 1062              		.size	g_ui32UARTPeriph, 12
 1063              	g_ui32UARTPeriph:
 1064 0000 001800F0 		.word	-268429312
 1065 0004 011800F0 		.word	-268429311
 1066 0008 021800F0 		.word	-268429310
 1067              		.type	g_ui32UARTBase, %object
 1068              		.size	g_ui32UARTBase, 12
 1069              	g_ui32UARTBase:
 1070 000c 00C00040 		.word	1073790976
 1071 0010 00D00040 		.word	1073795072
 1072 0014 00E00040 		.word	1073799168
 1073              		.bss
 1074              		.align	2
 1075              		.set	.LANCHOR1,. + 0
 1076              		.type	g_ui32Base, %object
 1077              		.size	g_ui32Base, 4
 1078              	g_ui32Base:
 1079 0000 00000000 		.space	4
 1080              		.type	bLastWasCR.4485, %object
 1081              		.size	bLastWasCR.4485, 1
 1082              	bLastWasCR.4485:
 1083 0004 00       		.space	1
 1084              		.section	.rodata.str1.4,"aMS",%progbits,1
 1085              		.align	2
ARM GAS  C:\Users\Diogo\AppData\Local\Temp\ccjiAD3E.s 			page 45


 1086              	.LC0:
 1087 0000 75617274 		.ascii	"uartstdio.c\000"
 1087      73746469 
 1087      6F2E6300 
 1088              	.LC1:
 1089 000c 08200800 		.ascii	"\010 \010\000"
 1090              	.LC2:
 1091 0010 0D0A00   		.ascii	"\015\012\000"
 1092 0013 00       		.space	1
 1093              	.LC3:
 1094 0014 2000     		.ascii	" \000"
 1095 0016 0000     		.space	2
 1096              	.LC4:
 1097 0018 30313233 		.ascii	"0123456789abcdef\000"
 1097      34353637 
 1097      38396162 
 1097      63646566 
 1097      00
 1098 0029 000000   		.space	3
 1099              	.LC5:
 1100 002c 4552524F 		.ascii	"ERROR\000"
 1100      5200
 1101              		.text
 1102              	.Letext0:
 1103              		.file 2 "c:\\program files (x86)\\gnu tools arm embedded\\7 2018-q2-update\\arm-none-eabi\\include
 1104              		.file 3 "c:\\program files (x86)\\gnu tools arm embedded\\7 2018-q2-update\\arm-none-eabi\\include
 1105              		.file 4 "c:\\program files (x86)\\gnu tools arm embedded\\7 2018-q2-update\\lib\\gcc\\arm-none-eab
 1106              		.file 5 "<built-in>"
 1107              		.file 6 "./inc/debug.h"