ARM GAS  C:\Users\Diogo\AppData\Local\Temp\ccezwank.s 			page 1


   1              		.cpu cortex-m4
   2              		.eabi_attribute 20, 1
   3              		.eabi_attribute 21, 1
   4              		.eabi_attribute 23, 3
   5              		.eabi_attribute 24, 1
   6              		.eabi_attribute 25, 1
   7              		.eabi_attribute 26, 1
   8              		.eabi_attribute 30, 1
   9              		.eabi_attribute 34, 1
  10              		.eabi_attribute 18, 4
  11              		.file	"ucontext.c"
  12              		.text
  13              	.Ltext0:
  14              		.cfi_sections	.debug_frame
  15              		.align	1
  16              		.global	getcontext
  17              		.syntax unified
  18              		.thumb
  19              		.thumb_func
  20              		.fpu softvfp
  21              		.type	getcontext, %function
  22              	getcontext:
  23              	.LFB0:
  24              		.file 1 "context/ucontext.c"
   1:context/ucontext.c **** // #pragma ARM
   2:context/ucontext.c **** #include "ucontext.h"
   3:context/ucontext.c **** 
   4:context/ucontext.c **** extern int flag;
   5:context/ucontext.c **** extern int memPC;
   6:context/ucontext.c **** 
   7:context/ucontext.c **** int r;
   8:context/ucontext.c **** int r0, r1, r2, r3, r4, r5, r6, r7, r8, r9, r10, r11, r12, r13, r14, r15;
   9:context/ucontext.c **** 
  10:context/ucontext.c **** int getcontext(ucontext_t *context)
  11:context/ucontext.c **** {
  25              		.loc 1 11 0
  26              		.cfi_startproc
  27              		@ args = 0, pretend = 0, frame = 0
  28              		@ frame_needed = 0, uses_anonymous_args = 0
  29              		@ link register save eliminated.
  30              	.LVL0:
  12:context/ucontext.c **** 	//__asm ("MOV SR, r" );   ;  SR = status register no MSP 430
  13:context/ucontext.c **** 	/*__asm (
  14:context/ucontext.c **** 			"MRS %[r], CPSR\n\t"
  15:context/ucontext.c **** 			: [r] "=&r" (r)
  16:context/ucontext.c **** 			:
  17:context/ucontext.c **** 	);   // CPSR = Current Program Status Register no ARM
  18:context/ucontext.c **** 	context->uc_mcontext.regCPSR = r;*/
  19:context/ucontext.c **** 
  20:context/ucontext.c **** 	//__asm("MOV R4, r");               No ARM:  MOV dst, src   MSP430: MOV src, dst
  21:context/ucontext.c **** 	//context->uc_mcontext.regR4 = r;
  22:context/ucontext.c **** 
  23:context/ucontext.c **** 	__asm(
  31              		.loc 1 23 0
  32 0000 214B     		ldr	r3, .L2
  33              		.syntax unified
  34              	@ 23 "context/ucontext.c" 1
ARM GAS  C:\Users\Diogo\AppData\Local\Temp\ccezwank.s 			page 2


  35 0002 4FF00002 		MOV r2, [r3]
  36              	@ 0 "" 2
  24:context/ucontext.c **** 		"MOV %[r], %[r0]"
  25:context/ucontext.c **** 		: [r] "=&r"(r)
  26:context/ucontext.c **** 		: [r0] "m"(r0));
  27:context/ucontext.c **** 	context->uc_mcontext.regR0 = r;
  37              		.loc 1 27 0
  38              		.thumb
  39              		.syntax unified
  40 0006 C261     		str	r2, [r0, #28]
  28:context/ucontext.c **** 
  29:context/ucontext.c **** 	__asm(
  41              		.loc 1 29 0
  42 0008 204B     		ldr	r3, .L2+4
  43              		.syntax unified
  44              	@ 29 "context/ucontext.c" 1
  45 000a 4FF00002 		MOV r2, [r3]
  46              	@ 0 "" 2
  30:context/ucontext.c **** 		"MOV %[r], %[r1]"
  31:context/ucontext.c **** 		: [r] "=&r"(r)
  32:context/ucontext.c **** 		: [r1] "m"(r1));
  33:context/ucontext.c **** 	context->uc_mcontext.regR1 = r;
  47              		.loc 1 33 0
  48              		.thumb
  49              		.syntax unified
  50 000e 0262     		str	r2, [r0, #32]
  34:context/ucontext.c **** 
  35:context/ucontext.c **** 	__asm(
  51              		.loc 1 35 0
  52 0010 1F4B     		ldr	r3, .L2+8
  53              		.syntax unified
  54              	@ 35 "context/ucontext.c" 1
  55 0012 4FF00002 		MOV r2, [r3]
  56              	@ 0 "" 2
  36:context/ucontext.c **** 		"MOV %[r], %[r2]"
  37:context/ucontext.c **** 		: [r] "=&r"(r)
  38:context/ucontext.c **** 		: [r2] "m"(r2));
  39:context/ucontext.c **** 	context->uc_mcontext.regR2 = r;
  57              		.loc 1 39 0
  58              		.thumb
  59              		.syntax unified
  60 0016 4262     		str	r2, [r0, #36]
  40:context/ucontext.c **** 
  41:context/ucontext.c **** 	__asm(
  61              		.loc 1 41 0
  62 0018 1E4B     		ldr	r3, .L2+12
  63              		.syntax unified
  64              	@ 41 "context/ucontext.c" 1
  65 001a 4FF00002 		MOV r2, [r3]
  66              	@ 0 "" 2
  42:context/ucontext.c **** 		"MOV %[r], %[r3]"
  43:context/ucontext.c **** 		: [r] "=&r"(r)
  44:context/ucontext.c **** 		: [r3] "m"(r3));
  45:context/ucontext.c **** 	context->uc_mcontext.regR3 = r;
  67              		.loc 1 45 0
  68              		.thumb
  69              		.syntax unified
ARM GAS  C:\Users\Diogo\AppData\Local\Temp\ccezwank.s 			page 3


  70 001e 8262     		str	r2, [r0, #40]
  46:context/ucontext.c **** 
  47:context/ucontext.c **** 	__asm(
  71              		.loc 1 47 0
  72 0020 1D4B     		ldr	r3, .L2+16
  73              		.syntax unified
  74              	@ 47 "context/ucontext.c" 1
  75 0022 4FF00002 		MOV r2, [r3]
  76              	@ 0 "" 2
  48:context/ucontext.c **** 		"MOV %[r], %[r4]"
  49:context/ucontext.c **** 		: [r] "=&r"(r)
  50:context/ucontext.c **** 		: [r4] "m"(r4));
  51:context/ucontext.c **** 	context->uc_mcontext.regR4 = r;
  77              		.loc 1 51 0
  78              		.thumb
  79              		.syntax unified
  80 0026 C262     		str	r2, [r0, #44]
  52:context/ucontext.c **** 
  53:context/ucontext.c **** 	__asm(
  81              		.loc 1 53 0
  82 0028 1C4B     		ldr	r3, .L2+20
  83              		.syntax unified
  84              	@ 53 "context/ucontext.c" 1
  85 002a 4FF00002 		MOV r2, [r3]
  86              	@ 0 "" 2
  54:context/ucontext.c **** 		"MOV %[r], %[r5]"
  55:context/ucontext.c **** 		: [r] "=&r"(r)
  56:context/ucontext.c **** 		: [r5] "m"(r5));
  57:context/ucontext.c **** 	context->uc_mcontext.regR5 = r;
  87              		.loc 1 57 0
  88              		.thumb
  89              		.syntax unified
  90 002e 0263     		str	r2, [r0, #48]
  58:context/ucontext.c **** 
  59:context/ucontext.c **** 	__asm(
  91              		.loc 1 59 0
  92 0030 1B4B     		ldr	r3, .L2+24
  93              		.syntax unified
  94              	@ 59 "context/ucontext.c" 1
  95 0032 4FF00002 		MOV r2, [r3]
  96              	@ 0 "" 2
  60:context/ucontext.c **** 		"MOV %[r], %[r6]"
  61:context/ucontext.c **** 		: [r] "=&r"(r)
  62:context/ucontext.c **** 		: [r6] "m"(r6));
  63:context/ucontext.c **** 	context->uc_mcontext.regR6 = r;
  97              		.loc 1 63 0
  98              		.thumb
  99              		.syntax unified
 100 0036 4263     		str	r2, [r0, #52]
  64:context/ucontext.c **** 
  65:context/ucontext.c **** 	__asm(
 101              		.loc 1 65 0
 102 0038 1A4B     		ldr	r3, .L2+28
 103              		.syntax unified
 104              	@ 65 "context/ucontext.c" 1
 105 003a 4FF00002 		MOV r2, [r3]
 106              	@ 0 "" 2
ARM GAS  C:\Users\Diogo\AppData\Local\Temp\ccezwank.s 			page 4


  66:context/ucontext.c **** 		"MOV %[r], %[r7]"
  67:context/ucontext.c **** 		: [r] "=&r"(r)
  68:context/ucontext.c **** 		: [r7] "m"(r7));
  69:context/ucontext.c **** 	context->uc_mcontext.regR7 = r;
 107              		.loc 1 69 0
 108              		.thumb
 109              		.syntax unified
 110 003e 8263     		str	r2, [r0, #56]
  70:context/ucontext.c **** 
  71:context/ucontext.c **** 	__asm(
 111              		.loc 1 71 0
 112 0040 194B     		ldr	r3, .L2+32
 113              		.syntax unified
 114              	@ 71 "context/ucontext.c" 1
 115 0042 4FF00002 		MOV r2, [r3]
 116              	@ 0 "" 2
  72:context/ucontext.c **** 		"MOV %[r], %[r8]"
  73:context/ucontext.c **** 		: [r] "=&r"(r)
  74:context/ucontext.c **** 		: [r8] "m"(r8));
  75:context/ucontext.c **** 	context->uc_mcontext.regR8 = r;
 117              		.loc 1 75 0
 118              		.thumb
 119              		.syntax unified
 120 0046 C263     		str	r2, [r0, #60]
  76:context/ucontext.c **** 
  77:context/ucontext.c **** 	__asm(
 121              		.loc 1 77 0
 122 0048 184B     		ldr	r3, .L2+36
 123              		.syntax unified
 124              	@ 77 "context/ucontext.c" 1
 125 004a 4FF00002 		MOV r2, [r3]
 126              	@ 0 "" 2
  78:context/ucontext.c **** 		"MOV %[r], %[r9]"
  79:context/ucontext.c **** 		: [r] "=&r"(r)
  80:context/ucontext.c **** 		: [r9] "m"(r9));
  81:context/ucontext.c **** 	context->uc_mcontext.regR9 = r;
 127              		.loc 1 81 0
 128              		.thumb
 129              		.syntax unified
 130 004e 0264     		str	r2, [r0, #64]
  82:context/ucontext.c **** 
  83:context/ucontext.c **** 	__asm(
 131              		.loc 1 83 0
 132 0050 174B     		ldr	r3, .L2+40
 133              		.syntax unified
 134              	@ 83 "context/ucontext.c" 1
 135 0052 4FF00002 		MOV r2, [r3]
 136              	@ 0 "" 2
  84:context/ucontext.c **** 		"MOV %[r], %[r10]"
  85:context/ucontext.c **** 		: [r] "=&r"(r)
  86:context/ucontext.c **** 		: [r10] "m"(r10));
  87:context/ucontext.c **** 	context->uc_mcontext.regR10 = r;
 137              		.loc 1 87 0
 138              		.thumb
 139              		.syntax unified
 140 0056 4264     		str	r2, [r0, #68]
  88:context/ucontext.c **** 
ARM GAS  C:\Users\Diogo\AppData\Local\Temp\ccezwank.s 			page 5


  89:context/ucontext.c **** 	__asm(
 141              		.loc 1 89 0
 142 0058 164B     		ldr	r3, .L2+44
 143              		.syntax unified
 144              	@ 89 "context/ucontext.c" 1
 145 005a 4FF00002 		MOV r2, [r3]
 146              	@ 0 "" 2
  90:context/ucontext.c **** 		"MOV %[r], %[r11]"
  91:context/ucontext.c **** 		: [r] "=&r"(r)
  92:context/ucontext.c **** 		: [r11] "m"(r11));
  93:context/ucontext.c **** 	context->uc_mcontext.regR11 = r;
 147              		.loc 1 93 0
 148              		.thumb
 149              		.syntax unified
 150 005e 8264     		str	r2, [r0, #72]
  94:context/ucontext.c **** 
  95:context/ucontext.c **** 	__asm(
 151              		.loc 1 95 0
 152 0060 154B     		ldr	r3, .L2+48
 153              		.syntax unified
 154              	@ 95 "context/ucontext.c" 1
 155 0062 4FF00002 		MOV r2, [r3]
 156              	@ 0 "" 2
  96:context/ucontext.c **** 		"MOV %[r], %[r12]"
  97:context/ucontext.c **** 		: [r] "=&r"(r)
  98:context/ucontext.c **** 		: [r12] "m"(r12));
  99:context/ucontext.c **** 	context->uc_mcontext.regR12 = r;
 157              		.loc 1 99 0
 158              		.thumb
 159              		.syntax unified
 160 0066 C264     		str	r2, [r0, #76]
 100:context/ucontext.c **** 
 101:context/ucontext.c **** 	__asm(
 161              		.loc 1 101 0
 162 0068 144B     		ldr	r3, .L2+52
 163              		.syntax unified
 164              	@ 101 "context/ucontext.c" 1
 165 006a 4FF00002 		MOV r2, [r3]
 166              	@ 0 "" 2
 102:context/ucontext.c **** 		"MOV %[r], %[r13]"
 103:context/ucontext.c **** 		: [r] "=&r"(r)
 104:context/ucontext.c **** 		: [r13] "m"(r13)); // ARM SP register
 105:context/ucontext.c **** 	context->uc_mcontext.regR13 = r;
 167              		.loc 1 105 0
 168              		.thumb
 169              		.syntax unified
 170 006e 0265     		str	r2, [r0, #80]
 106:context/ucontext.c **** 
 107:context/ucontext.c **** 	//__asm("MOV r, LR");            // ARM LR register
 108:context/ucontext.c **** 	//context->uc_mcontext.reg14 = r;
 109:context/ucontext.c **** 
 110:context/ucontext.c **** 	__asm(
 171              		.loc 1 110 0
 172 0070 134B     		ldr	r3, .L2+56
 173              		.syntax unified
 174              	@ 110 "context/ucontext.c" 1
 175 0072 4FF00002 		MOV r2, [r3]
ARM GAS  C:\Users\Diogo\AppData\Local\Temp\ccezwank.s 			page 6


 176              	@ 0 "" 2
 177              		.thumb
 178              		.syntax unified
 179 0076 1346     		mov	r3, r2
 180 0078 124A     		ldr	r2, .L2+60
 181 007a 1360     		str	r3, [r2]
 111:context/ucontext.c **** 		"MOV %[r], %[r15]"
 112:context/ucontext.c **** 		: [r] "=&r"(r)
 113:context/ucontext.c **** 		: [r15] "m"(r15)); // ARM PC register
 114:context/ucontext.c **** 	context->uc_mcontext.regR15 = r;
 182              		.loc 1 114 0
 183 007c 8365     		str	r3, [r0, #88]
 115:context/ucontext.c **** 
 116:context/ucontext.c **** 	// asm
 117:context/ucontext.c **** 	// (
 118:context/ucontext.c **** 	// "MOV PC, r"
 119:context/ucontext.c **** 	// );
 120:context/ucontext.c **** 	// if(!flag)
 121:context/ucontext.c **** 	// context->uc_mcontext.regPC = r; // Com salvamento em ASM
 122:context/ucontext.c **** 
 123:context/ucontext.c **** 	context->uc_mcontext.regPC = memPC;
 184              		.loc 1 123 0
 185 007e 124B     		ldr	r3, .L2+64
 186 0080 1B68     		ldr	r3, [r3]
 187 0082 0361     		str	r3, [r0, #16]
 124:context/ucontext.c **** 
 125:context/ucontext.c **** 	return 0;
 126:context/ucontext.c **** }
 188              		.loc 1 126 0
 189 0084 0020     		movs	r0, #0
 190              	.LVL1:
 191 0086 7047     		bx	lr
 192              	.L3:
 193              		.align	2
 194              	.L2:
 195 0088 00000000 		.word	r0
 196 008c 00000000 		.word	r1
 197 0090 00000000 		.word	r2
 198 0094 00000000 		.word	r3
 199 0098 00000000 		.word	r4
 200 009c 00000000 		.word	r5
 201 00a0 00000000 		.word	r6
 202 00a4 00000000 		.word	r7
 203 00a8 00000000 		.word	r8
 204 00ac 00000000 		.word	r9
 205 00b0 00000000 		.word	r10
 206 00b4 00000000 		.word	r11
 207 00b8 00000000 		.word	r12
 208 00bc 00000000 		.word	r13
 209 00c0 00000000 		.word	r15
 210 00c4 00000000 		.word	r
 211 00c8 00000000 		.word	memPC
 212              		.cfi_endproc
 213              	.LFE0:
 214              		.size	getcontext, .-getcontext
 215              		.align	1
 216              		.global	setcontext
ARM GAS  C:\Users\Diogo\AppData\Local\Temp\ccezwank.s 			page 7


 217              		.syntax unified
 218              		.thumb
 219              		.thumb_func
 220              		.fpu softvfp
 221              		.type	setcontext, %function
 222              	setcontext:
 223              	.LFB1:
 127:context/ucontext.c **** 
 128:context/ucontext.c **** int setcontext(ucontext_t *context)
 129:context/ucontext.c **** {
 224              		.loc 1 129 0
 225              		.cfi_startproc
 226              		@ args = 0, pretend = 0, frame = 0
 227              		@ frame_needed = 0, uses_anonymous_args = 0
 228              		@ link register save eliminated.
 229              	.LVL2:
 130:context/ucontext.c **** 
 131:context/ucontext.c **** 	/*r = context->uc_mcontext.regCPSR;
 132:context/ucontext.c **** 	//MSR     CPSR_c, xxxx      sets the control bits
 133:context/ucontext.c ****     //MSR     CPSR_f, xxxx      sets the flag bits
 134:context/ucontext.c ****     //MSR     CPSR_cxsf, xxxx   sets everything
 135:context/ucontext.c **** 
 136:context/ucontext.c **** 	__asm("MSR CPSR_f, r1");
 137:context/ucontext.c **** 	//__asm("MSR CPSR_c, r1");*/
 138:context/ucontext.c **** 
 139:context/ucontext.c **** 	r = context->uc_mcontext.regR4;
 230              		.loc 1 139 0
 231 00cc 364B     		ldr	r3, .L8
 232 00ce C26A     		ldr	r2, [r0, #44]
 233 00d0 1A60     		str	r2, [r3]
 140:context/ucontext.c **** 	__asm(
 234              		.loc 1 140 0
 235              		.syntax unified
 236              	@ 140 "context/ucontext.c" 1
 237 00d2 4FF00001 		MOV r1, [r3]
 238              	@ 0 "" 2
 239              		.thumb
 240              		.syntax unified
 241 00d6 354A     		ldr	r2, .L8+4
 242 00d8 1160     		str	r1, [r2]
 141:context/ucontext.c **** 		"MOV %[r4], %[r]"
 142:context/ucontext.c **** 		: [r4] "=&r"(r4)
 143:context/ucontext.c **** 		: [r] "m"(r));
 144:context/ucontext.c **** 
 145:context/ucontext.c **** 	r = context->uc_mcontext.regR5;
 243              		.loc 1 145 0
 244 00da 026B     		ldr	r2, [r0, #48]
 245 00dc 1A60     		str	r2, [r3]
 146:context/ucontext.c **** 	__asm(
 246              		.loc 1 146 0
 247              		.syntax unified
 248              	@ 146 "context/ucontext.c" 1
 249 00de 4FF00001 		MOV r1, [r3]
 250              	@ 0 "" 2
 251              		.thumb
 252              		.syntax unified
 253 00e2 334A     		ldr	r2, .L8+8
ARM GAS  C:\Users\Diogo\AppData\Local\Temp\ccezwank.s 			page 8


 254 00e4 1160     		str	r1, [r2]
 147:context/ucontext.c **** 		"MOV %[r5], %[r]"
 148:context/ucontext.c **** 		: [r5] "=&r"(r5)
 149:context/ucontext.c **** 		: [r] "m"(r));
 150:context/ucontext.c **** 
 151:context/ucontext.c **** 	r = context->uc_mcontext.regR6;
 255              		.loc 1 151 0
 256 00e6 426B     		ldr	r2, [r0, #52]
 257 00e8 1A60     		str	r2, [r3]
 152:context/ucontext.c **** 	__asm(
 258              		.loc 1 152 0
 259              		.syntax unified
 260              	@ 152 "context/ucontext.c" 1
 261 00ea 4FF00001 		MOV r1, [r3]
 262              	@ 0 "" 2
 263              		.thumb
 264              		.syntax unified
 265 00ee 314A     		ldr	r2, .L8+12
 266 00f0 1160     		str	r1, [r2]
 153:context/ucontext.c **** 		"MOV %[r6], %[r]"
 154:context/ucontext.c **** 		: [r6] "=&r"(r6)
 155:context/ucontext.c **** 		: [r] "m"(r));
 156:context/ucontext.c **** 
 157:context/ucontext.c **** 	r = context->uc_mcontext.regR7;
 267              		.loc 1 157 0
 268 00f2 826B     		ldr	r2, [r0, #56]
 269 00f4 1A60     		str	r2, [r3]
 158:context/ucontext.c **** 	__asm(
 270              		.loc 1 158 0
 271              		.syntax unified
 272              	@ 158 "context/ucontext.c" 1
 273 00f6 4FF00001 		MOV r1, [r3]
 274              	@ 0 "" 2
 275              		.thumb
 276              		.syntax unified
 277 00fa 2F4A     		ldr	r2, .L8+16
 278 00fc 1160     		str	r1, [r2]
 159:context/ucontext.c **** 		"MOV %[r7], %[r]"
 160:context/ucontext.c **** 		: [r7] "=&r"(r7)
 161:context/ucontext.c **** 		: [r] "m"(r));
 162:context/ucontext.c **** 
 163:context/ucontext.c **** 	r = context->uc_mcontext.regR8;
 279              		.loc 1 163 0
 280 00fe C26B     		ldr	r2, [r0, #60]
 281 0100 1A60     		str	r2, [r3]
 164:context/ucontext.c **** 	__asm(
 282              		.loc 1 164 0
 283              		.syntax unified
 284              	@ 164 "context/ucontext.c" 1
 285 0102 4FF00001 		MOV r1, [r3]
 286              	@ 0 "" 2
 287              		.thumb
 288              		.syntax unified
 289 0106 2D4A     		ldr	r2, .L8+20
 290 0108 1160     		str	r1, [r2]
 165:context/ucontext.c **** 		"MOV %[r8], %[r]"
 166:context/ucontext.c **** 		: [r8] "=&r"(r8)
ARM GAS  C:\Users\Diogo\AppData\Local\Temp\ccezwank.s 			page 9


 167:context/ucontext.c **** 		: [r] "m"(r));
 168:context/ucontext.c **** 
 169:context/ucontext.c **** 	r = context->uc_mcontext.regR9;
 291              		.loc 1 169 0
 292 010a 026C     		ldr	r2, [r0, #64]
 293 010c 1A60     		str	r2, [r3]
 170:context/ucontext.c **** 	__asm(
 294              		.loc 1 170 0
 295              		.syntax unified
 296              	@ 170 "context/ucontext.c" 1
 297 010e 4FF00001 		MOV r1, [r3]
 298              	@ 0 "" 2
 299              		.thumb
 300              		.syntax unified
 301 0112 2B4A     		ldr	r2, .L8+24
 302 0114 1160     		str	r1, [r2]
 171:context/ucontext.c **** 		"MOV %[r9], %[r]"
 172:context/ucontext.c **** 		: [r9] "=&r"(r9)
 173:context/ucontext.c **** 		: [r] "m"(r));
 174:context/ucontext.c **** 
 175:context/ucontext.c **** 	r = context->uc_mcontext.regR10;
 303              		.loc 1 175 0
 304 0116 426C     		ldr	r2, [r0, #68]
 305 0118 1A60     		str	r2, [r3]
 176:context/ucontext.c **** 	__asm(
 306              		.loc 1 176 0
 307              		.syntax unified
 308              	@ 176 "context/ucontext.c" 1
 309 011a 4FF00001 		MOV r1, [r3]
 310              	@ 0 "" 2
 311              		.thumb
 312              		.syntax unified
 313 011e 294A     		ldr	r2, .L8+28
 314 0120 1160     		str	r1, [r2]
 177:context/ucontext.c **** 		"MOV %[r10], %[r]"
 178:context/ucontext.c **** 		: [r10] "=&r"(r10)
 179:context/ucontext.c **** 		: [r] "m"(r));
 180:context/ucontext.c **** 
 181:context/ucontext.c **** 	r = context->uc_mcontext.regR11;
 315              		.loc 1 181 0
 316 0122 826C     		ldr	r2, [r0, #72]
 317 0124 1A60     		str	r2, [r3]
 182:context/ucontext.c **** 	__asm(
 318              		.loc 1 182 0
 319              		.syntax unified
 320              	@ 182 "context/ucontext.c" 1
 321 0126 4FF00001 		MOV r1, [r3]
 322              	@ 0 "" 2
 323              		.thumb
 324              		.syntax unified
 325 012a 274A     		ldr	r2, .L8+32
 326 012c 1160     		str	r1, [r2]
 183:context/ucontext.c **** 		"MOV %[r11], %[r]"
 184:context/ucontext.c **** 		: [r11] "=&r"(r11)
 185:context/ucontext.c **** 		: [r] "m"(r));
 186:context/ucontext.c **** 
 187:context/ucontext.c **** 	r = context->uc_mcontext.regR12;
ARM GAS  C:\Users\Diogo\AppData\Local\Temp\ccezwank.s 			page 10


 327              		.loc 1 187 0
 328 012e C26C     		ldr	r2, [r0, #76]
 329 0130 1A60     		str	r2, [r3]
 188:context/ucontext.c **** 	__asm(
 330              		.loc 1 188 0
 331              		.syntax unified
 332              	@ 188 "context/ucontext.c" 1
 333 0132 4FF00001 		MOV r1, [r3]
 334              	@ 0 "" 2
 335              		.thumb
 336              		.syntax unified
 337 0136 254A     		ldr	r2, .L8+36
 338 0138 1160     		str	r1, [r2]
 189:context/ucontext.c **** 		"MOV %[r12], %[r]"
 190:context/ucontext.c **** 		: [r12] "=&r"(r12)
 191:context/ucontext.c **** 		: [r] "m"(r));
 192:context/ucontext.c **** 
 193:context/ucontext.c **** 	r = context->uc_mcontext.regR13;
 339              		.loc 1 193 0
 340 013a 026D     		ldr	r2, [r0, #80]
 341 013c 1A60     		str	r2, [r3]
 194:context/ucontext.c **** 	__asm(
 342              		.loc 1 194 0
 343              		.syntax unified
 344              	@ 194 "context/ucontext.c" 1
 345 013e 4FF00001 		MOV r1, [r3]
 346              	@ 0 "" 2
 347              		.thumb
 348              		.syntax unified
 349 0142 234A     		ldr	r2, .L8+40
 350 0144 1160     		str	r1, [r2]
 195:context/ucontext.c **** 		"MOV %[r13], %[r]"
 196:context/ucontext.c **** 		: [r13] "=&r"(r13)
 197:context/ucontext.c **** 		: [r] "m"(r));
 198:context/ucontext.c **** 
 199:context/ucontext.c **** 	r = context->uc_mcontext.regR14;
 351              		.loc 1 199 0
 352 0146 426D     		ldr	r2, [r0, #84]
 353 0148 1A60     		str	r2, [r3]
 200:context/ucontext.c **** 	__asm(
 354              		.loc 1 200 0
 355              		.syntax unified
 356              	@ 200 "context/ucontext.c" 1
 357 014a 4FF00001 		MOV r1, [r3]
 358              	@ 0 "" 2
 359              		.thumb
 360              		.syntax unified
 361 014e 214A     		ldr	r2, .L8+44
 362 0150 1160     		str	r1, [r2]
 201:context/ucontext.c **** 		"MOV %[r14], %[r]"
 202:context/ucontext.c **** 		: [r14] "=&r"(r14)
 203:context/ucontext.c **** 		: [r] "m"(r));
 204:context/ucontext.c **** 
 205:context/ucontext.c **** 	r = context->uc_mcontext.regR15;
 363              		.loc 1 205 0
 364 0152 826D     		ldr	r2, [r0, #88]
 365 0154 1A60     		str	r2, [r3]
ARM GAS  C:\Users\Diogo\AppData\Local\Temp\ccezwank.s 			page 11


 206:context/ucontext.c **** 	__asm(
 366              		.loc 1 206 0
 367              		.syntax unified
 368              	@ 206 "context/ucontext.c" 1
 369 0156 4FF00002 		MOV r2, [r3]
 370              	@ 0 "" 2
 371              		.thumb
 372              		.syntax unified
 373 015a 1F4B     		ldr	r3, .L8+48
 374 015c 1A60     		str	r2, [r3]
 207:context/ucontext.c **** 		"MOV %[r15], %[r]"
 208:context/ucontext.c **** 		: [r15] "=&r"(r15)
 209:context/ucontext.c **** 		: [r] "m"(r));
 210:context/ucontext.c **** 
 211:context/ucontext.c **** 	///////////////////////////////////////////////////////////////////
 212:context/ucontext.c **** 	if (!context->initialized)
 375              		.loc 1 212 0
 376 015e 036E     		ldr	r3, [r0, #96]
 377 0160 8BB1     		cbz	r3, .L7
 213:context/ucontext.c **** 	{
 214:context/ucontext.c **** 		r = (int)context->uc_stack.ss_sp;
 215:context/ucontext.c **** 		__asm(
 216:context/ucontext.c **** 			"MOV %[r13], %[r]"
 217:context/ucontext.c **** 			: [r13] "=&r"(r13)
 218:context/ucontext.c **** 			: [r] "m"(r));
 219:context/ucontext.c **** 
 220:context/ucontext.c **** 		r = (int)(context->func);
 221:context/ucontext.c **** 		context->initialized = 1;
 222:context/ucontext.c **** 		__asm(
 223:context/ucontext.c **** 			"MOV %[r15], %[r]"
 224:context/ucontext.c **** 			: [r15] "=&r"(r15)
 225:context/ucontext.c **** 			: [r] "m"(r));
 226:context/ucontext.c **** 	}
 227:context/ucontext.c **** 
 228:context/ucontext.c **** 	else
 229:context/ucontext.c **** 	{
 230:context/ucontext.c **** 		flag = 1;
 378              		.loc 1 230 0
 379 0162 1E4B     		ldr	r3, .L8+52
 380 0164 0122     		movs	r2, #1
 381 0166 1A60     		str	r2, [r3]
 231:context/ucontext.c **** 		r = context->uc_mcontext.regSP;
 382              		.loc 1 231 0
 383 0168 0F4B     		ldr	r3, .L8
 384 016a 4269     		ldr	r2, [r0, #20]
 385 016c 1A60     		str	r2, [r3]
 232:context/ucontext.c **** 		__asm(
 386              		.loc 1 232 0
 387              		.syntax unified
 388              	@ 232 "context/ucontext.c" 1
 389 016e 4FF00001 		MOV r1, [r3]
 390              	@ 0 "" 2
 391              		.thumb
 392              		.syntax unified
 393 0172 174A     		ldr	r2, .L8+40
 394 0174 1160     		str	r1, [r2]
 233:context/ucontext.c **** 			"MOV %[r13], %[r]"
ARM GAS  C:\Users\Diogo\AppData\Local\Temp\ccezwank.s 			page 12


 234:context/ucontext.c **** 			: [r13] "=&r"(r13)
 235:context/ucontext.c **** 			: [r] "m"(r));
 236:context/ucontext.c **** 
 237:context/ucontext.c **** 		r = context->uc_mcontext.regPC;
 395              		.loc 1 237 0
 396 0176 0269     		ldr	r2, [r0, #16]
 397 0178 1A60     		str	r2, [r3]
 238:context/ucontext.c **** 		__asm(
 398              		.loc 1 238 0
 399              		.syntax unified
 400              	@ 238 "context/ucontext.c" 1
 401 017a 4FF00002 		MOV r2, [r3]
 402              	@ 0 "" 2
 403              		.thumb
 404              		.syntax unified
 405 017e 164B     		ldr	r3, .L8+48
 406 0180 1A60     		str	r2, [r3]
 407              	.L6:
 239:context/ucontext.c **** 			"MOV %[r15], %[r]"
 240:context/ucontext.c **** 			: [r15] "=&r"(r15)
 241:context/ucontext.c **** 			: [r] "m"(r));
 242:context/ucontext.c **** 	}
 243:context/ucontext.c **** 
 244:context/ucontext.c **** 	return 0;
 245:context/ucontext.c **** }
 408              		.loc 1 245 0
 409 0182 0020     		movs	r0, #0
 410              	.LVL3:
 411 0184 7047     		bx	lr
 412              	.LVL4:
 413              	.L7:
 214:context/ucontext.c **** 		__asm(
 414              		.loc 1 214 0
 415 0186 084B     		ldr	r3, .L8
 416 0188 4268     		ldr	r2, [r0, #4]
 417 018a 1A60     		str	r2, [r3]
 215:context/ucontext.c **** 			"MOV %[r13], %[r]"
 418              		.loc 1 215 0
 419              		.syntax unified
 420              	@ 215 "context/ucontext.c" 1
 421 018c 4FF00001 		MOV r1, [r3]
 422              	@ 0 "" 2
 423              		.thumb
 424              		.syntax unified
 425 0190 0F4A     		ldr	r2, .L8+40
 426 0192 1160     		str	r1, [r2]
 220:context/ucontext.c **** 		context->initialized = 1;
 427              		.loc 1 220 0
 428 0194 C26D     		ldr	r2, [r0, #92]
 429 0196 1A60     		str	r2, [r3]
 221:context/ucontext.c **** 		__asm(
 430              		.loc 1 221 0
 431 0198 0122     		movs	r2, #1
 432 019a 0266     		str	r2, [r0, #96]
 222:context/ucontext.c **** 			"MOV %[r15], %[r]"
 433              		.loc 1 222 0
 434              		.syntax unified
ARM GAS  C:\Users\Diogo\AppData\Local\Temp\ccezwank.s 			page 13


 435              	@ 222 "context/ucontext.c" 1
 436 019c 4FF00002 		MOV r2, [r3]
 437              	@ 0 "" 2
 438              		.thumb
 439              		.syntax unified
 440 01a0 0D4B     		ldr	r3, .L8+48
 441 01a2 1A60     		str	r2, [r3]
 442 01a4 EDE7     		b	.L6
 443              	.L9:
 444 01a6 00BF     		.align	2
 445              	.L8:
 446 01a8 00000000 		.word	r
 447 01ac 00000000 		.word	r4
 448 01b0 00000000 		.word	r5
 449 01b4 00000000 		.word	r6
 450 01b8 00000000 		.word	r7
 451 01bc 00000000 		.word	r8
 452 01c0 00000000 		.word	r9
 453 01c4 00000000 		.word	r10
 454 01c8 00000000 		.word	r11
 455 01cc 00000000 		.word	r12
 456 01d0 00000000 		.word	r13
 457 01d4 00000000 		.word	r14
 458 01d8 00000000 		.word	r15
 459 01dc 00000000 		.word	flag
 460              		.cfi_endproc
 461              	.LFE1:
 462              		.size	setcontext, .-setcontext
 463              		.align	1
 464              		.global	makecontext
 465              		.syntax unified
 466              		.thumb
 467              		.thumb_func
 468              		.fpu softvfp
 469              		.type	makecontext, %function
 470              	makecontext:
 471              	.LFB2:
 246:context/ucontext.c **** 
 247:context/ucontext.c **** /////////////////////////////////////////////////////////////////////////
 248:context/ucontext.c **** 
 249:context/ucontext.c **** //void makecontext(ucontext_t *context, int start_routine, int n_parms, char* parm)
 250:context/ucontext.c **** void makecontext(ucontext_t *context, int start_routine, int n_parms, char *parm)
 251:context/ucontext.c **** {
 472              		.loc 1 251 0
 473              		.cfi_startproc
 474              		@ args = 0, pretend = 0, frame = 0
 475              		@ frame_needed = 0, uses_anonymous_args = 0
 476              		@ link register save eliminated.
 477              	.LVL5:
 252:context/ucontext.c **** 	context->func = start_routine;
 478              		.loc 1 252 0
 479 01e0 C165     		str	r1, [r0, #92]
 253:context/ucontext.c **** }
 480              		.loc 1 253 0
 481 01e2 7047     		bx	lr
 482              		.cfi_endproc
 483              	.LFE2:
ARM GAS  C:\Users\Diogo\AppData\Local\Temp\ccezwank.s 			page 14


 484              		.size	makecontext, .-makecontext
 485              		.align	1
 486              		.global	swapcontext
 487              		.syntax unified
 488              		.thumb
 489              		.thumb_func
 490              		.fpu softvfp
 491              		.type	swapcontext, %function
 492              	swapcontext:
 493              	.LFB3:
 254:context/ucontext.c **** 
 255:context/ucontext.c **** int swapcontext(ucontext_t *saida, ucontext_t *entrada)
 256:context/ucontext.c **** {
 494              		.loc 1 256 0
 495              		.cfi_startproc
 496              		@ args = 0, pretend = 0, frame = 8
 497              		@ frame_needed = 0, uses_anonymous_args = 0
 498              	.LVL6:
 499 01e4 00B5     		push	{lr}
 500              	.LCFI0:
 501              		.cfi_def_cfa_offset 4
 502              		.cfi_offset 14, -4
 503 01e6 83B0     		sub	sp, sp, #12
 504              	.LCFI1:
 505              		.cfi_def_cfa_offset 16
 506 01e8 0191     		str	r1, [sp, #4]
 257:context/ucontext.c **** 	getcontext(saida);
 507              		.loc 1 257 0
 508 01ea FFF7FEFF 		bl	getcontext
 509              	.LVL7:
 258:context/ucontext.c **** 	setcontext(entrada);
 510              		.loc 1 258 0
 511 01ee 0198     		ldr	r0, [sp, #4]
 512 01f0 FFF7FEFF 		bl	setcontext
 513              	.LVL8:
 259:context/ucontext.c **** 
 260:context/ucontext.c **** 	return 0;
 261:context/ucontext.c **** }
 514              		.loc 1 261 0
 515 01f4 0020     		movs	r0, #0
 516 01f6 03B0     		add	sp, sp, #12
 517              	.LCFI2:
 518              		.cfi_def_cfa_offset 4
 519              		@ sp needed
 520 01f8 5DF804FB 		ldr	pc, [sp], #4
 521              		.cfi_endproc
 522              	.LFE3:
 523              		.size	swapcontext, .-swapcontext
 524              		.comm	r15,4,4
 525              		.comm	r14,4,4
 526              		.comm	r13,4,4
 527              		.comm	r12,4,4
 528              		.comm	r11,4,4
 529              		.comm	r10,4,4
 530              		.comm	r9,4,4
 531              		.comm	r8,4,4
 532              		.comm	r7,4,4
ARM GAS  C:\Users\Diogo\AppData\Local\Temp\ccezwank.s 			page 15


 533              		.comm	r6,4,4
 534              		.comm	r5,4,4
 535              		.comm	r4,4,4
 536              		.comm	r3,4,4
 537              		.comm	r2,4,4
 538              		.comm	r1,4,4
 539              		.comm	r0,4,4
 540              		.comm	r,4,4
 541              	.Letext0:
 542              		.file 2 "context/ucontext.h"